(dp1
S'OriginalConfig'
p2
ccopy_reg
_reconstructor
p3
(cWMCore.Configuration
Configuration
p4
c__builtin__
object
p5
NtRp6
(dp7
S'Site'
p8
g3
(cWMCore.Configuration
ConfigSection
p9
g5
NtRp10
(dp11
S'_internal_skipChecks'
p12
I00
sS'_internal_documentation'
p13
S''
sS'_internal_settings'
p14
c__builtin__
set
p15
((lp16
S'storageSite'
p17
atRp18
sS'_internal_name'
p19
g8
sS'_internal_docstrings'
p20
(dp21
sS'_internal_children'
p22
g15
((ltRp23
sg17
S'T2_CH_CERN'
p24
sS'_internal_parent_ref'
p25
NsbsS'_internal_sections'
p26
(lp27
S'General'
p28
aS'JobType'
p29
aS'Data'
p30
ag8
aS'User'
p31
aS'Debug'
p32
asg28
g3
(g9
g5
NtRp33
(dp34
S'transferLogs'
p35
I01
sg12
I00
sg13
S''
sg14
g15
((lp36
g35
aS'transferOutputs'
p37
aS'workArea'
p38
aS'requestName'
p39
atRp40
sg19
g28
sg20
(dp41
sg37
I01
sg22
g15
((ltRp42
sg39
S'reco_mc_lbl'
p43
sg25
Nsg38
S'crab_projects'
p44
sbsS'_internal_webapps'
p45
(lp46
sg31
g3
(g9
g5
NtRp47
(dp48
g12
I00
sg13
S''
sg14
g15
((ltRp49
sg19
g31
sg20
(dp50
sg22
g15
((ltRp51
sg25
NsbsS'_internal_components'
p52
(lp53
sg32
g3
(g9
g5
NtRp54
(dp55
g12
I00
sg13
S''
sg14
g15
((ltRp56
sg19
g32
sg20
(dp57
sg22
g15
((ltRp58
sg25
Nsbsg30
g3
(g9
g5
NtRp59
(dp60
S'allowNonValidInputDataset'
p61
I01
sg12
I00
sS'unitsPerJob'
p62
I1
sg13
S''
sg14
g15
((lp63
g61
aS'publication'
p64
ag62
aS'userInputFiles'
p65
aS'splitting'
p66
aS'outputDatasetTag'
p67
aS'outLFNDirBase'
p68
aS'outputPrimaryDataset'
p69
atRp70
sg68
S'/store/group/phys_diffraction/lbyl_2018/mc_lbl/reco'
p71
sg19
g30
sg66
S'FileBased'
p72
sg20
(dp73
sg67
g43
sg22
g15
((ltRp74
sg69
g43
sg25
Nsg65
(lp75
S'/store/group/phys_diffraction/lbyl_2018/mc_lbl/digi_raw/digi_raw_lbl/digi_raw_lbl/190717_184152/0000/digi_raw_test_1.root\n'
p76
aS'/store/group/phys_diffraction/lbyl_2018/mc_lbl/digi_raw/digi_raw_lbl/digi_raw_lbl/190717_184152/0000/digi_raw_test_10.root\n'
p77
aS'/store/group/phys_diffraction/lbyl_2018/mc_lbl/digi_raw/digi_raw_lbl/digi_raw_lbl/190717_184152/0000/digi_raw_test_100.root\n'
p78
aS'/store/group/phys_diffraction/lbyl_2018/mc_lbl/digi_raw/digi_raw_lbl/digi_raw_lbl/190717_184152/0000/digi_raw_test_101.root\n'
p79
aS'/store/group/phys_diffraction/lbyl_2018/mc_lbl/digi_raw/digi_raw_lbl/digi_raw_lbl/190717_184152/0000/digi_raw_test_102.root\n'
p80
aS'/store/group/phys_diffraction/lbyl_2018/mc_lbl/digi_raw/digi_raw_lbl/digi_raw_lbl/190717_184152/0000/digi_raw_test_103.root\n'
p81
aS'/store/group/phys_diffraction/lbyl_2018/mc_lbl/digi_raw/digi_raw_lbl/digi_raw_lbl/190717_184152/0000/digi_raw_test_104.root\n'
p82
aS'/store/group/phys_diffraction/lbyl_2018/mc_lbl/digi_raw/digi_raw_lbl/digi_raw_lbl/190717_184152/0000/digi_raw_test_105.root\n'
p83
aS'/store/group/phys_diffraction/lbyl_2018/mc_lbl/digi_raw/digi_raw_lbl/digi_raw_lbl/190717_184152/0000/digi_raw_test_106.root\n'
p84
aS'/store/group/phys_diffraction/lbyl_2018/mc_lbl/digi_raw/digi_raw_lbl/digi_raw_lbl/190717_184152/0000/digi_raw_test_107.root\n'
p85
aS'/store/group/phys_diffraction/lbyl_2018/mc_lbl/digi_raw/digi_raw_lbl/digi_raw_lbl/190717_184152/0000/digi_raw_test_109.root\n'
p86
aS'/store/group/phys_diffraction/lbyl_2018/mc_lbl/digi_raw/digi_raw_lbl/digi_raw_lbl/190717_184152/0000/digi_raw_test_11.root\n'
p87
aS'/store/group/phys_diffraction/lbyl_2018/mc_lbl/digi_raw/digi_raw_lbl/digi_raw_lbl/190717_184152/0000/digi_raw_test_110.root\n'
p88
aS'/store/group/phys_diffraction/lbyl_2018/mc_lbl/digi_raw/digi_raw_lbl/digi_raw_lbl/190717_184152/0000/digi_raw_test_111.root\n'
p89
aS'/store/group/phys_diffraction/lbyl_2018/mc_lbl/digi_raw/digi_raw_lbl/digi_raw_lbl/190717_184152/0000/digi_raw_test_112.root\n'
p90
aS'/store/group/phys_diffraction/lbyl_2018/mc_lbl/digi_raw/digi_raw_lbl/digi_raw_lbl/190717_184152/0000/digi_raw_test_113.root\n'
p91
aS'/store/group/phys_diffraction/lbyl_2018/mc_lbl/digi_raw/digi_raw_lbl/digi_raw_lbl/190717_184152/0000/digi_raw_test_114.root\n'
p92
aS'/store/group/phys_diffraction/lbyl_2018/mc_lbl/digi_raw/digi_raw_lbl/digi_raw_lbl/190717_184152/0000/digi_raw_test_115.root\n'
p93
aS'/store/group/phys_diffraction/lbyl_2018/mc_lbl/digi_raw/digi_raw_lbl/digi_raw_lbl/190717_184152/0000/digi_raw_test_116.root\n'
p94
aS'/store/group/phys_diffraction/lbyl_2018/mc_lbl/digi_raw/digi_raw_lbl/digi_raw_lbl/190717_184152/0000/digi_raw_test_12.root\n'
p95
aS'/store/group/phys_diffraction/lbyl_2018/mc_lbl/digi_raw/digi_raw_lbl/digi_raw_lbl/190717_184152/0000/digi_raw_test_122.root\n'
p96
aS'/store/group/phys_diffraction/lbyl_2018/mc_lbl/digi_raw/digi_raw_lbl/digi_raw_lbl/190717_184152/0000/digi_raw_test_123.root\n'
p97
aS'/store/group/phys_diffraction/lbyl_2018/mc_lbl/digi_raw/digi_raw_lbl/digi_raw_lbl/190717_184152/0000/digi_raw_test_124.root\n'
p98
aS'/store/group/phys_diffraction/lbyl_2018/mc_lbl/digi_raw/digi_raw_lbl/digi_raw_lbl/190717_184152/0000/digi_raw_test_125.root\n'
p99
aS'/store/group/phys_diffraction/lbyl_2018/mc_lbl/digi_raw/digi_raw_lbl/digi_raw_lbl/190717_184152/0000/digi_raw_test_126.root\n'
p100
aS'/store/group/phys_diffraction/lbyl_2018/mc_lbl/digi_raw/digi_raw_lbl/digi_raw_lbl/190717_184152/0000/digi_raw_test_127.root\n'
p101
aS'/store/group/phys_diffraction/lbyl_2018/mc_lbl/digi_raw/digi_raw_lbl/digi_raw_lbl/190717_184152/0000/digi_raw_test_128.root\n'
p102
aS'/store/group/phys_diffraction/lbyl_2018/mc_lbl/digi_raw/digi_raw_lbl/digi_raw_lbl/190717_184152/0000/digi_raw_test_129.root\n'
p103
aS'/store/group/phys_diffraction/lbyl_2018/mc_lbl/digi_raw/digi_raw_lbl/digi_raw_lbl/190717_184152/0000/digi_raw_test_13.root\n'
p104
aS'/store/group/phys_diffraction/lbyl_2018/mc_lbl/digi_raw/digi_raw_lbl/digi_raw_lbl/190717_184152/0000/digi_raw_test_130.root\n'
p105
aS'/store/group/phys_diffraction/lbyl_2018/mc_lbl/digi_raw/digi_raw_lbl/digi_raw_lbl/190717_184152/0000/digi_raw_test_131.root\n'
p106
aS'/store/group/phys_diffraction/lbyl_2018/mc_lbl/digi_raw/digi_raw_lbl/digi_raw_lbl/190717_184152/0000/digi_raw_test_132.root\n'
p107
aS'/store/group/phys_diffraction/lbyl_2018/mc_lbl/digi_raw/digi_raw_lbl/digi_raw_lbl/190717_184152/0000/digi_raw_test_133.root\n'
p108
aS'/store/group/phys_diffraction/lbyl_2018/mc_lbl/digi_raw/digi_raw_lbl/digi_raw_lbl/190717_184152/0000/digi_raw_test_134.root\n'
p109
aS'/store/group/phys_diffraction/lbyl_2018/mc_lbl/digi_raw/digi_raw_lbl/digi_raw_lbl/190717_184152/0000/digi_raw_test_135.root\n'
p110
aS'/store/group/phys_diffraction/lbyl_2018/mc_lbl/digi_raw/digi_raw_lbl/digi_raw_lbl/190717_184152/0000/digi_raw_test_136.root\n'
p111
aS'/store/group/phys_diffraction/lbyl_2018/mc_lbl/digi_raw/digi_raw_lbl/digi_raw_lbl/190717_184152/0000/digi_raw_test_137.root\n'
p112
aS'/store/group/phys_diffraction/lbyl_2018/mc_lbl/digi_raw/digi_raw_lbl/digi_raw_lbl/190717_184152/0000/digi_raw_test_138.root\n'
p113
aS'/store/group/phys_diffraction/lbyl_2018/mc_lbl/digi_raw/digi_raw_lbl/digi_raw_lbl/190717_184152/0000/digi_raw_test_139.root\n'
p114
aS'/store/group/phys_diffraction/lbyl_2018/mc_lbl/digi_raw/digi_raw_lbl/digi_raw_lbl/190717_184152/0000/digi_raw_test_14.root\n'
p115
aS'/store/group/phys_diffraction/lbyl_2018/mc_lbl/digi_raw/digi_raw_lbl/digi_raw_lbl/190717_184152/0000/digi_raw_test_140.root\n'
p116
aS'/store/group/phys_diffraction/lbyl_2018/mc_lbl/digi_raw/digi_raw_lbl/digi_raw_lbl/190717_184152/0000/digi_raw_test_141.root\n'
p117
aS'/store/group/phys_diffraction/lbyl_2018/mc_lbl/digi_raw/digi_raw_lbl/digi_raw_lbl/190717_184152/0000/digi_raw_test_142.root\n'
p118
aS'/store/group/phys_diffraction/lbyl_2018/mc_lbl/digi_raw/digi_raw_lbl/digi_raw_lbl/190717_184152/0000/digi_raw_test_143.root\n'
p119
aS'/store/group/phys_diffraction/lbyl_2018/mc_lbl/digi_raw/digi_raw_lbl/digi_raw_lbl/190717_184152/0000/digi_raw_test_144.root\n'
p120
aS'/store/group/phys_diffraction/lbyl_2018/mc_lbl/digi_raw/digi_raw_lbl/digi_raw_lbl/190717_184152/0000/digi_raw_test_145.root\n'
p121
aS'/store/group/phys_diffraction/lbyl_2018/mc_lbl/digi_raw/digi_raw_lbl/digi_raw_lbl/190717_184152/0000/digi_raw_test_146.root\n'
p122
aS'/store/group/phys_diffraction/lbyl_2018/mc_lbl/digi_raw/digi_raw_lbl/digi_raw_lbl/190717_184152/0000/digi_raw_test_147.root\n'
p123
aS'/store/group/phys_diffraction/lbyl_2018/mc_lbl/digi_raw/digi_raw_lbl/digi_raw_lbl/190717_184152/0000/digi_raw_test_148.root\n'
p124
aS'/store/group/phys_diffraction/lbyl_2018/mc_lbl/digi_raw/digi_raw_lbl/digi_raw_lbl/190717_184152/0000/digi_raw_test_149.root\n'
p125
aS'/store/group/phys_diffraction/lbyl_2018/mc_lbl/digi_raw/digi_raw_lbl/digi_raw_lbl/190717_184152/0000/digi_raw_test_15.root\n'
p126
aS'/store/group/phys_diffraction/lbyl_2018/mc_lbl/digi_raw/digi_raw_lbl/digi_raw_lbl/190717_184152/0000/digi_raw_test_150.root\n'
p127
aS'/store/group/phys_diffraction/lbyl_2018/mc_lbl/digi_raw/digi_raw_lbl/digi_raw_lbl/190717_184152/0000/digi_raw_test_151.root\n'
p128
aS'/store/group/phys_diffraction/lbyl_2018/mc_lbl/digi_raw/digi_raw_lbl/digi_raw_lbl/190717_184152/0000/digi_raw_test_152.root\n'
p129
aS'/store/group/phys_diffraction/lbyl_2018/mc_lbl/digi_raw/digi_raw_lbl/digi_raw_lbl/190717_184152/0000/digi_raw_test_153.root\n'
p130
aS'/store/group/phys_diffraction/lbyl_2018/mc_lbl/digi_raw/digi_raw_lbl/digi_raw_lbl/190717_184152/0000/digi_raw_test_154.root\n'
p131
aS'/store/group/phys_diffraction/lbyl_2018/mc_lbl/digi_raw/digi_raw_lbl/digi_raw_lbl/190717_184152/0000/digi_raw_test_155.root\n'
p132
aS'/store/group/phys_diffraction/lbyl_2018/mc_lbl/digi_raw/digi_raw_lbl/digi_raw_lbl/190717_184152/0000/digi_raw_test_156.root\n'
p133
aS'/store/group/phys_diffraction/lbyl_2018/mc_lbl/digi_raw/digi_raw_lbl/digi_raw_lbl/190717_184152/0000/digi_raw_test_157.root\n'
p134
aS'/store/group/phys_diffraction/lbyl_2018/mc_lbl/digi_raw/digi_raw_lbl/digi_raw_lbl/190717_184152/0000/digi_raw_test_158.root\n'
p135
aS'/store/group/phys_diffraction/lbyl_2018/mc_lbl/digi_raw/digi_raw_lbl/digi_raw_lbl/190717_184152/0000/digi_raw_test_159.root\n'
p136
aS'/store/group/phys_diffraction/lbyl_2018/mc_lbl/digi_raw/digi_raw_lbl/digi_raw_lbl/190717_184152/0000/digi_raw_test_16.root\n'
p137
aS'/store/group/phys_diffraction/lbyl_2018/mc_lbl/digi_raw/digi_raw_lbl/digi_raw_lbl/190717_184152/0000/digi_raw_test_160.root\n'
p138
aS'/store/group/phys_diffraction/lbyl_2018/mc_lbl/digi_raw/digi_raw_lbl/digi_raw_lbl/190717_184152/0000/digi_raw_test_161.root\n'
p139
aS'/store/group/phys_diffraction/lbyl_2018/mc_lbl/digi_raw/digi_raw_lbl/digi_raw_lbl/190717_184152/0000/digi_raw_test_162.root\n'
p140
aS'/store/group/phys_diffraction/lbyl_2018/mc_lbl/digi_raw/digi_raw_lbl/digi_raw_lbl/190717_184152/0000/digi_raw_test_163.root\n'
p141
aS'/store/group/phys_diffraction/lbyl_2018/mc_lbl/digi_raw/digi_raw_lbl/digi_raw_lbl/190717_184152/0000/digi_raw_test_164.root\n'
p142
aS'/store/group/phys_diffraction/lbyl_2018/mc_lbl/digi_raw/digi_raw_lbl/digi_raw_lbl/190717_184152/0000/digi_raw_test_165.root\n'
p143
aS'/store/group/phys_diffraction/lbyl_2018/mc_lbl/digi_raw/digi_raw_lbl/digi_raw_lbl/190717_184152/0000/digi_raw_test_166.root\n'
p144
aS'/store/group/phys_diffraction/lbyl_2018/mc_lbl/digi_raw/digi_raw_lbl/digi_raw_lbl/190717_184152/0000/digi_raw_test_167.root\n'
p145
aS'/store/group/phys_diffraction/lbyl_2018/mc_lbl/digi_raw/digi_raw_lbl/digi_raw_lbl/190717_184152/0000/digi_raw_test_168.root\n'
p146
aS'/store/group/phys_diffraction/lbyl_2018/mc_lbl/digi_raw/digi_raw_lbl/digi_raw_lbl/190717_184152/0000/digi_raw_test_169.root\n'
p147
aS'/store/group/phys_diffraction/lbyl_2018/mc_lbl/digi_raw/digi_raw_lbl/digi_raw_lbl/190717_184152/0000/digi_raw_test_17.root\n'
p148
aS'/store/group/phys_diffraction/lbyl_2018/mc_lbl/digi_raw/digi_raw_lbl/digi_raw_lbl/190717_184152/0000/digi_raw_test_170.root\n'
p149
aS'/store/group/phys_diffraction/lbyl_2018/mc_lbl/digi_raw/digi_raw_lbl/digi_raw_lbl/190717_184152/0000/digi_raw_test_171.root\n'
p150
aS'/store/group/phys_diffraction/lbyl_2018/mc_lbl/digi_raw/digi_raw_lbl/digi_raw_lbl/190717_184152/0000/digi_raw_test_172.root\n'
p151
aS'/store/group/phys_diffraction/lbyl_2018/mc_lbl/digi_raw/digi_raw_lbl/digi_raw_lbl/190717_184152/0000/digi_raw_test_173.root\n'
p152
aS'/store/group/phys_diffraction/lbyl_2018/mc_lbl/digi_raw/digi_raw_lbl/digi_raw_lbl/190717_184152/0000/digi_raw_test_174.root\n'
p153
aS'/store/group/phys_diffraction/lbyl_2018/mc_lbl/digi_raw/digi_raw_lbl/digi_raw_lbl/190717_184152/0000/digi_raw_test_175.root\n'
p154
aS'/store/group/phys_diffraction/lbyl_2018/mc_lbl/digi_raw/digi_raw_lbl/digi_raw_lbl/190717_184152/0000/digi_raw_test_176.root\n'
p155
aS'/store/group/phys_diffraction/lbyl_2018/mc_lbl/digi_raw/digi_raw_lbl/digi_raw_lbl/190717_184152/0000/digi_raw_test_177.root\n'
p156
aS'/store/group/phys_diffraction/lbyl_2018/mc_lbl/digi_raw/digi_raw_lbl/digi_raw_lbl/190717_184152/0000/digi_raw_test_178.root\n'
p157
aS'/store/group/phys_diffraction/lbyl_2018/mc_lbl/digi_raw/digi_raw_lbl/digi_raw_lbl/190717_184152/0000/digi_raw_test_179.root\n'
p158
aS'/store/group/phys_diffraction/lbyl_2018/mc_lbl/digi_raw/digi_raw_lbl/digi_raw_lbl/190717_184152/0000/digi_raw_test_18.root\n'
p159
aS'/store/group/phys_diffraction/lbyl_2018/mc_lbl/digi_raw/digi_raw_lbl/digi_raw_lbl/190717_184152/0000/digi_raw_test_180.root\n'
p160
aS'/store/group/phys_diffraction/lbyl_2018/mc_lbl/digi_raw/digi_raw_lbl/digi_raw_lbl/190717_184152/0000/digi_raw_test_181.root\n'
p161
aS'/store/group/phys_diffraction/lbyl_2018/mc_lbl/digi_raw/digi_raw_lbl/digi_raw_lbl/190717_184152/0000/digi_raw_test_182.root\n'
p162
aS'/store/group/phys_diffraction/lbyl_2018/mc_lbl/digi_raw/digi_raw_lbl/digi_raw_lbl/190717_184152/0000/digi_raw_test_183.root\n'
p163
aS'/store/group/phys_diffraction/lbyl_2018/mc_lbl/digi_raw/digi_raw_lbl/digi_raw_lbl/190717_184152/0000/digi_raw_test_184.root\n'
p164
aS'/store/group/phys_diffraction/lbyl_2018/mc_lbl/digi_raw/digi_raw_lbl/digi_raw_lbl/190717_184152/0000/digi_raw_test_185.root\n'
p165
aS'/store/group/phys_diffraction/lbyl_2018/mc_lbl/digi_raw/digi_raw_lbl/digi_raw_lbl/190717_184152/0000/digi_raw_test_186.root\n'
p166
aS'/store/group/phys_diffraction/lbyl_2018/mc_lbl/digi_raw/digi_raw_lbl/digi_raw_lbl/190717_184152/0000/digi_raw_test_187.root\n'
p167
aS'/store/group/phys_diffraction/lbyl_2018/mc_lbl/digi_raw/digi_raw_lbl/digi_raw_lbl/190717_184152/0000/digi_raw_test_188.root\n'
p168
aS'/store/group/phys_diffraction/lbyl_2018/mc_lbl/digi_raw/digi_raw_lbl/digi_raw_lbl/190717_184152/0000/digi_raw_test_189.root\n'
p169
aS'/store/group/phys_diffraction/lbyl_2018/mc_lbl/digi_raw/digi_raw_lbl/digi_raw_lbl/190717_184152/0000/digi_raw_test_19.root\n'
p170
aS'/store/group/phys_diffraction/lbyl_2018/mc_lbl/digi_raw/digi_raw_lbl/digi_raw_lbl/190717_184152/0000/digi_raw_test_190.root\n'
p171
aS'/store/group/phys_diffraction/lbyl_2018/mc_lbl/digi_raw/digi_raw_lbl/digi_raw_lbl/190717_184152/0000/digi_raw_test_191.root\n'
p172
aS'/store/group/phys_diffraction/lbyl_2018/mc_lbl/digi_raw/digi_raw_lbl/digi_raw_lbl/190717_184152/0000/digi_raw_test_192.root\n'
p173
aS'/store/group/phys_diffraction/lbyl_2018/mc_lbl/digi_raw/digi_raw_lbl/digi_raw_lbl/190717_184152/0000/digi_raw_test_193.root\n'
p174
aS'/store/group/phys_diffraction/lbyl_2018/mc_lbl/digi_raw/digi_raw_lbl/digi_raw_lbl/190717_184152/0000/digi_raw_test_194.root\n'
p175
aS'/store/group/phys_diffraction/lbyl_2018/mc_lbl/digi_raw/digi_raw_lbl/digi_raw_lbl/190717_184152/0000/digi_raw_test_195.root\n'
p176
aS'/store/group/phys_diffraction/lbyl_2018/mc_lbl/digi_raw/digi_raw_lbl/digi_raw_lbl/190717_184152/0000/digi_raw_test_196.root\n'
p177
aS'/store/group/phys_diffraction/lbyl_2018/mc_lbl/digi_raw/digi_raw_lbl/digi_raw_lbl/190717_184152/0000/digi_raw_test_197.root\n'
p178
aS'/store/group/phys_diffraction/lbyl_2018/mc_lbl/digi_raw/digi_raw_lbl/digi_raw_lbl/190717_184152/0000/digi_raw_test_198.root\n'
p179
aS'/store/group/phys_diffraction/lbyl_2018/mc_lbl/digi_raw/digi_raw_lbl/digi_raw_lbl/190717_184152/0000/digi_raw_test_199.root\n'
p180
aS'/store/group/phys_diffraction/lbyl_2018/mc_lbl/digi_raw/digi_raw_lbl/digi_raw_lbl/190717_184152/0000/digi_raw_test_20.root\n'
p181
aS'/store/group/phys_diffraction/lbyl_2018/mc_lbl/digi_raw/digi_raw_lbl/digi_raw_lbl/190717_184152/0000/digi_raw_test_200.root\n'
p182
aS'/store/group/phys_diffraction/lbyl_2018/mc_lbl/digi_raw/digi_raw_lbl/digi_raw_lbl/190717_184152/0000/digi_raw_test_201.root\n'
p183
aS'/store/group/phys_diffraction/lbyl_2018/mc_lbl/digi_raw/digi_raw_lbl/digi_raw_lbl/190717_184152/0000/digi_raw_test_202.root\n'
p184
aS'/store/group/phys_diffraction/lbyl_2018/mc_lbl/digi_raw/digi_raw_lbl/digi_raw_lbl/190717_184152/0000/digi_raw_test_203.root\n'
p185
aS'/store/group/phys_diffraction/lbyl_2018/mc_lbl/digi_raw/digi_raw_lbl/digi_raw_lbl/190717_184152/0000/digi_raw_test_204.root\n'
p186
aS'/store/group/phys_diffraction/lbyl_2018/mc_lbl/digi_raw/digi_raw_lbl/digi_raw_lbl/190717_184152/0000/digi_raw_test_205.root\n'
p187
aS'/store/group/phys_diffraction/lbyl_2018/mc_lbl/digi_raw/digi_raw_lbl/digi_raw_lbl/190717_184152/0000/digi_raw_test_206.root\n'
p188
aS'/store/group/phys_diffraction/lbyl_2018/mc_lbl/digi_raw/digi_raw_lbl/digi_raw_lbl/190717_184152/0000/digi_raw_test_207.root\n'
p189
aS'/store/group/phys_diffraction/lbyl_2018/mc_lbl/digi_raw/digi_raw_lbl/digi_raw_lbl/190717_184152/0000/digi_raw_test_208.root\n'
p190
aS'/store/group/phys_diffraction/lbyl_2018/mc_lbl/digi_raw/digi_raw_lbl/digi_raw_lbl/190717_184152/0000/digi_raw_test_209.root\n'
p191
aS'/store/group/phys_diffraction/lbyl_2018/mc_lbl/digi_raw/digi_raw_lbl/digi_raw_lbl/190717_184152/0000/digi_raw_test_21.root\n'
p192
aS'/store/group/phys_diffraction/lbyl_2018/mc_lbl/digi_raw/digi_raw_lbl/digi_raw_lbl/190717_184152/0000/digi_raw_test_210.root\n'
p193
aS'/store/group/phys_diffraction/lbyl_2018/mc_lbl/digi_raw/digi_raw_lbl/digi_raw_lbl/190717_184152/0000/digi_raw_test_211.root\n'
p194
aS'/store/group/phys_diffraction/lbyl_2018/mc_lbl/digi_raw/digi_raw_lbl/digi_raw_lbl/190717_184152/0000/digi_raw_test_212.root\n'
p195
aS'/store/group/phys_diffraction/lbyl_2018/mc_lbl/digi_raw/digi_raw_lbl/digi_raw_lbl/190717_184152/0000/digi_raw_test_213.root\n'
p196
aS'/store/group/phys_diffraction/lbyl_2018/mc_lbl/digi_raw/digi_raw_lbl/digi_raw_lbl/190717_184152/0000/digi_raw_test_214.root\n'
p197
aS'/store/group/phys_diffraction/lbyl_2018/mc_lbl/digi_raw/digi_raw_lbl/digi_raw_lbl/190717_184152/0000/digi_raw_test_215.root\n'
p198
aS'/store/group/phys_diffraction/lbyl_2018/mc_lbl/digi_raw/digi_raw_lbl/digi_raw_lbl/190717_184152/0000/digi_raw_test_216.root\n'
p199
aS'/store/group/phys_diffraction/lbyl_2018/mc_lbl/digi_raw/digi_raw_lbl/digi_raw_lbl/190717_184152/0000/digi_raw_test_217.root\n'
p200
aS'/store/group/phys_diffraction/lbyl_2018/mc_lbl/digi_raw/digi_raw_lbl/digi_raw_lbl/190717_184152/0000/digi_raw_test_218.root\n'
p201
aS'/store/group/phys_diffraction/lbyl_2018/mc_lbl/digi_raw/digi_raw_lbl/digi_raw_lbl/190717_184152/0000/digi_raw_test_219.root\n'
p202
aS'/store/group/phys_diffraction/lbyl_2018/mc_lbl/digi_raw/digi_raw_lbl/digi_raw_lbl/190717_184152/0000/digi_raw_test_22.root\n'
p203
aS'/store/group/phys_diffraction/lbyl_2018/mc_lbl/digi_raw/digi_raw_lbl/digi_raw_lbl/190717_184152/0000/digi_raw_test_220.root\n'
p204
aS'/store/group/phys_diffraction/lbyl_2018/mc_lbl/digi_raw/digi_raw_lbl/digi_raw_lbl/190717_184152/0000/digi_raw_test_221.root\n'
p205
aS'/store/group/phys_diffraction/lbyl_2018/mc_lbl/digi_raw/digi_raw_lbl/digi_raw_lbl/190717_184152/0000/digi_raw_test_222.root\n'
p206
aS'/store/group/phys_diffraction/lbyl_2018/mc_lbl/digi_raw/digi_raw_lbl/digi_raw_lbl/190717_184152/0000/digi_raw_test_223.root\n'
p207
aS'/store/group/phys_diffraction/lbyl_2018/mc_lbl/digi_raw/digi_raw_lbl/digi_raw_lbl/190717_184152/0000/digi_raw_test_224.root\n'
p208
aS'/store/group/phys_diffraction/lbyl_2018/mc_lbl/digi_raw/digi_raw_lbl/digi_raw_lbl/190717_184152/0000/digi_raw_test_225.root\n'
p209
aS'/store/group/phys_diffraction/lbyl_2018/mc_lbl/digi_raw/digi_raw_lbl/digi_raw_lbl/190717_184152/0000/digi_raw_test_226.root\n'
p210
aS'/store/group/phys_diffraction/lbyl_2018/mc_lbl/digi_raw/digi_raw_lbl/digi_raw_lbl/190717_184152/0000/digi_raw_test_227.root\n'
p211
aS'/store/group/phys_diffraction/lbyl_2018/mc_lbl/digi_raw/digi_raw_lbl/digi_raw_lbl/190717_184152/0000/digi_raw_test_228.root\n'
p212
aS'/store/group/phys_diffraction/lbyl_2018/mc_lbl/digi_raw/digi_raw_lbl/digi_raw_lbl/190717_184152/0000/digi_raw_test_229.root\n'
p213
aS'/store/group/phys_diffraction/lbyl_2018/mc_lbl/digi_raw/digi_raw_lbl/digi_raw_lbl/190717_184152/0000/digi_raw_test_23.root\n'
p214
aS'/store/group/phys_diffraction/lbyl_2018/mc_lbl/digi_raw/digi_raw_lbl/digi_raw_lbl/190717_184152/0000/digi_raw_test_230.root\n'
p215
aS'/store/group/phys_diffraction/lbyl_2018/mc_lbl/digi_raw/digi_raw_lbl/digi_raw_lbl/190717_184152/0000/digi_raw_test_231.root\n'
p216
aS'/store/group/phys_diffraction/lbyl_2018/mc_lbl/digi_raw/digi_raw_lbl/digi_raw_lbl/190717_184152/0000/digi_raw_test_232.root\n'
p217
aS'/store/group/phys_diffraction/lbyl_2018/mc_lbl/digi_raw/digi_raw_lbl/digi_raw_lbl/190717_184152/0000/digi_raw_test_233.root\n'
p218
aS'/store/group/phys_diffraction/lbyl_2018/mc_lbl/digi_raw/digi_raw_lbl/digi_raw_lbl/190717_184152/0000/digi_raw_test_234.root\n'
p219
aS'/store/group/phys_diffraction/lbyl_2018/mc_lbl/digi_raw/digi_raw_lbl/digi_raw_lbl/190717_184152/0000/digi_raw_test_235.root\n'
p220
aS'/store/group/phys_diffraction/lbyl_2018/mc_lbl/digi_raw/digi_raw_lbl/digi_raw_lbl/190717_184152/0000/digi_raw_test_236.root\n'
p221
aS'/store/group/phys_diffraction/lbyl_2018/mc_lbl/digi_raw/digi_raw_lbl/digi_raw_lbl/190717_184152/0000/digi_raw_test_237.root\n'
p222
aS'/store/group/phys_diffraction/lbyl_2018/mc_lbl/digi_raw/digi_raw_lbl/digi_raw_lbl/190717_184152/0000/digi_raw_test_238.root\n'
p223
aS'/store/group/phys_diffraction/lbyl_2018/mc_lbl/digi_raw/digi_raw_lbl/digi_raw_lbl/190717_184152/0000/digi_raw_test_239.root\n'
p224
aS'/store/group/phys_diffraction/lbyl_2018/mc_lbl/digi_raw/digi_raw_lbl/digi_raw_lbl/190717_184152/0000/digi_raw_test_24.root\n'
p225
aS'/store/group/phys_diffraction/lbyl_2018/mc_lbl/digi_raw/digi_raw_lbl/digi_raw_lbl/190717_184152/0000/digi_raw_test_240.root\n'
p226
aS'/store/group/phys_diffraction/lbyl_2018/mc_lbl/digi_raw/digi_raw_lbl/digi_raw_lbl/190717_184152/0000/digi_raw_test_241.root\n'
p227
aS'/store/group/phys_diffraction/lbyl_2018/mc_lbl/digi_raw/digi_raw_lbl/digi_raw_lbl/190717_184152/0000/digi_raw_test_242.root\n'
p228
aS'/store/group/phys_diffraction/lbyl_2018/mc_lbl/digi_raw/digi_raw_lbl/digi_raw_lbl/190717_184152/0000/digi_raw_test_243.root\n'
p229
aS'/store/group/phys_diffraction/lbyl_2018/mc_lbl/digi_raw/digi_raw_lbl/digi_raw_lbl/190717_184152/0000/digi_raw_test_244.root\n'
p230
aS'/store/group/phys_diffraction/lbyl_2018/mc_lbl/digi_raw/digi_raw_lbl/digi_raw_lbl/190717_184152/0000/digi_raw_test_245.root\n'
p231
aS'/store/group/phys_diffraction/lbyl_2018/mc_lbl/digi_raw/digi_raw_lbl/digi_raw_lbl/190717_184152/0000/digi_raw_test_246.root\n'
p232
aS'/store/group/phys_diffraction/lbyl_2018/mc_lbl/digi_raw/digi_raw_lbl/digi_raw_lbl/190717_184152/0000/digi_raw_test_247.root\n'
p233
aS'/store/group/phys_diffraction/lbyl_2018/mc_lbl/digi_raw/digi_raw_lbl/digi_raw_lbl/190717_184152/0000/digi_raw_test_248.root\n'
p234
aS'/store/group/phys_diffraction/lbyl_2018/mc_lbl/digi_raw/digi_raw_lbl/digi_raw_lbl/190717_184152/0000/digi_raw_test_249.root\n'
p235
aS'/store/group/phys_diffraction/lbyl_2018/mc_lbl/digi_raw/digi_raw_lbl/digi_raw_lbl/190717_184152/0000/digi_raw_test_25.root\n'
p236
aS'/store/group/phys_diffraction/lbyl_2018/mc_lbl/digi_raw/digi_raw_lbl/digi_raw_lbl/190717_184152/0000/digi_raw_test_250.root\n'
p237
aS'/store/group/phys_diffraction/lbyl_2018/mc_lbl/digi_raw/digi_raw_lbl/digi_raw_lbl/190717_184152/0000/digi_raw_test_251.root\n'
p238
aS'/store/group/phys_diffraction/lbyl_2018/mc_lbl/digi_raw/digi_raw_lbl/digi_raw_lbl/190717_184152/0000/digi_raw_test_252.root\n'
p239
aS'/store/group/phys_diffraction/lbyl_2018/mc_lbl/digi_raw/digi_raw_lbl/digi_raw_lbl/190717_184152/0000/digi_raw_test_253.root\n'
p240
aS'/store/group/phys_diffraction/lbyl_2018/mc_lbl/digi_raw/digi_raw_lbl/digi_raw_lbl/190717_184152/0000/digi_raw_test_254.root\n'
p241
aS'/store/group/phys_diffraction/lbyl_2018/mc_lbl/digi_raw/digi_raw_lbl/digi_raw_lbl/190717_184152/0000/digi_raw_test_255.root\n'
p242
aS'/store/group/phys_diffraction/lbyl_2018/mc_lbl/digi_raw/digi_raw_lbl/digi_raw_lbl/190717_184152/0000/digi_raw_test_256.root\n'
p243
aS'/store/group/phys_diffraction/lbyl_2018/mc_lbl/digi_raw/digi_raw_lbl/digi_raw_lbl/190717_184152/0000/digi_raw_test_257.root\n'
p244
aS'/store/group/phys_diffraction/lbyl_2018/mc_lbl/digi_raw/digi_raw_lbl/digi_raw_lbl/190717_184152/0000/digi_raw_test_258.root\n'
p245
aS'/store/group/phys_diffraction/lbyl_2018/mc_lbl/digi_raw/digi_raw_lbl/digi_raw_lbl/190717_184152/0000/digi_raw_test_259.root\n'
p246
aS'/store/group/phys_diffraction/lbyl_2018/mc_lbl/digi_raw/digi_raw_lbl/digi_raw_lbl/190717_184152/0000/digi_raw_test_26.root\n'
p247
aS'/store/group/phys_diffraction/lbyl_2018/mc_lbl/digi_raw/digi_raw_lbl/digi_raw_lbl/190717_184152/0000/digi_raw_test_260.root\n'
p248
aS'/store/group/phys_diffraction/lbyl_2018/mc_lbl/digi_raw/digi_raw_lbl/digi_raw_lbl/190717_184152/0000/digi_raw_test_261.root\n'
p249
aS'/store/group/phys_diffraction/lbyl_2018/mc_lbl/digi_raw/digi_raw_lbl/digi_raw_lbl/190717_184152/0000/digi_raw_test_262.root\n'
p250
aS'/store/group/phys_diffraction/lbyl_2018/mc_lbl/digi_raw/digi_raw_lbl/digi_raw_lbl/190717_184152/0000/digi_raw_test_263.root\n'
p251
aS'/store/group/phys_diffraction/lbyl_2018/mc_lbl/digi_raw/digi_raw_lbl/digi_raw_lbl/190717_184152/0000/digi_raw_test_264.root\n'
p252
aS'/store/group/phys_diffraction/lbyl_2018/mc_lbl/digi_raw/digi_raw_lbl/digi_raw_lbl/190717_184152/0000/digi_raw_test_265.root\n'
p253
aS'/store/group/phys_diffraction/lbyl_2018/mc_lbl/digi_raw/digi_raw_lbl/digi_raw_lbl/190717_184152/0000/digi_raw_test_266.root\n'
p254
aS'/store/group/phys_diffraction/lbyl_2018/mc_lbl/digi_raw/digi_raw_lbl/digi_raw_lbl/190717_184152/0000/digi_raw_test_267.root\n'
p255
aS'/store/group/phys_diffraction/lbyl_2018/mc_lbl/digi_raw/digi_raw_lbl/digi_raw_lbl/190717_184152/0000/digi_raw_test_268.root\n'
p256
aS'/store/group/phys_diffraction/lbyl_2018/mc_lbl/digi_raw/digi_raw_lbl/digi_raw_lbl/190717_184152/0000/digi_raw_test_269.root\n'
p257
aS'/store/group/phys_diffraction/lbyl_2018/mc_lbl/digi_raw/digi_raw_lbl/digi_raw_lbl/190717_184152/0000/digi_raw_test_27.root\n'
p258
aS'/store/group/phys_diffraction/lbyl_2018/mc_lbl/digi_raw/digi_raw_lbl/digi_raw_lbl/190717_184152/0000/digi_raw_test_270.root\n'
p259
aS'/store/group/phys_diffraction/lbyl_2018/mc_lbl/digi_raw/digi_raw_lbl/digi_raw_lbl/190717_184152/0000/digi_raw_test_271.root\n'
p260
aS'/store/group/phys_diffraction/lbyl_2018/mc_lbl/digi_raw/digi_raw_lbl/digi_raw_lbl/190717_184152/0000/digi_raw_test_272.root\n'
p261
aS'/store/group/phys_diffraction/lbyl_2018/mc_lbl/digi_raw/digi_raw_lbl/digi_raw_lbl/190717_184152/0000/digi_raw_test_273.root\n'
p262
aS'/store/group/phys_diffraction/lbyl_2018/mc_lbl/digi_raw/digi_raw_lbl/digi_raw_lbl/190717_184152/0000/digi_raw_test_274.root\n'
p263
aS'/store/group/phys_diffraction/lbyl_2018/mc_lbl/digi_raw/digi_raw_lbl/digi_raw_lbl/190717_184152/0000/digi_raw_test_275.root\n'
p264
aS'/store/group/phys_diffraction/lbyl_2018/mc_lbl/digi_raw/digi_raw_lbl/digi_raw_lbl/190717_184152/0000/digi_raw_test_276.root\n'
p265
aS'/store/group/phys_diffraction/lbyl_2018/mc_lbl/digi_raw/digi_raw_lbl/digi_raw_lbl/190717_184152/0000/digi_raw_test_277.root\n'
p266
aS'/store/group/phys_diffraction/lbyl_2018/mc_lbl/digi_raw/digi_raw_lbl/digi_raw_lbl/190717_184152/0000/digi_raw_test_278.root\n'
p267
aS'/store/group/phys_diffraction/lbyl_2018/mc_lbl/digi_raw/digi_raw_lbl/digi_raw_lbl/190717_184152/0000/digi_raw_test_279.root\n'
p268
aS'/store/group/phys_diffraction/lbyl_2018/mc_lbl/digi_raw/digi_raw_lbl/digi_raw_lbl/190717_184152/0000/digi_raw_test_28.root\n'
p269
aS'/store/group/phys_diffraction/lbyl_2018/mc_lbl/digi_raw/digi_raw_lbl/digi_raw_lbl/190717_184152/0000/digi_raw_test_280.root\n'
p270
aS'/store/group/phys_diffraction/lbyl_2018/mc_lbl/digi_raw/digi_raw_lbl/digi_raw_lbl/190717_184152/0000/digi_raw_test_281.root\n'
p271
aS'/store/group/phys_diffraction/lbyl_2018/mc_lbl/digi_raw/digi_raw_lbl/digi_raw_lbl/190717_184152/0000/digi_raw_test_282.root\n'
p272
aS'/store/group/phys_diffraction/lbyl_2018/mc_lbl/digi_raw/digi_raw_lbl/digi_raw_lbl/190717_184152/0000/digi_raw_test_283.root\n'
p273
aS'/store/group/phys_diffraction/lbyl_2018/mc_lbl/digi_raw/digi_raw_lbl/digi_raw_lbl/190717_184152/0000/digi_raw_test_284.root\n'
p274
aS'/store/group/phys_diffraction/lbyl_2018/mc_lbl/digi_raw/digi_raw_lbl/digi_raw_lbl/190717_184152/0000/digi_raw_test_285.root\n'
p275
aS'/store/group/phys_diffraction/lbyl_2018/mc_lbl/digi_raw/digi_raw_lbl/digi_raw_lbl/190717_184152/0000/digi_raw_test_286.root\n'
p276
aS'/store/group/phys_diffraction/lbyl_2018/mc_lbl/digi_raw/digi_raw_lbl/digi_raw_lbl/190717_184152/0000/digi_raw_test_287.root\n'
p277
aS'/store/group/phys_diffraction/lbyl_2018/mc_lbl/digi_raw/digi_raw_lbl/digi_raw_lbl/190717_184152/0000/digi_raw_test_288.root\n'
p278
aS'/store/group/phys_diffraction/lbyl_2018/mc_lbl/digi_raw/digi_raw_lbl/digi_raw_lbl/190717_184152/0000/digi_raw_test_289.root\n'
p279
aS'/store/group/phys_diffraction/lbyl_2018/mc_lbl/digi_raw/digi_raw_lbl/digi_raw_lbl/190717_184152/0000/digi_raw_test_29.root\n'
p280
aS'/store/group/phys_diffraction/lbyl_2018/mc_lbl/digi_raw/digi_raw_lbl/digi_raw_lbl/190717_184152/0000/digi_raw_test_290.root\n'
p281
aS'/store/group/phys_diffraction/lbyl_2018/mc_lbl/digi_raw/digi_raw_lbl/digi_raw_lbl/190717_184152/0000/digi_raw_test_291.root\n'
p282
aS'/store/group/phys_diffraction/lbyl_2018/mc_lbl/digi_raw/digi_raw_lbl/digi_raw_lbl/190717_184152/0000/digi_raw_test_292.root\n'
p283
aS'/store/group/phys_diffraction/lbyl_2018/mc_lbl/digi_raw/digi_raw_lbl/digi_raw_lbl/190717_184152/0000/digi_raw_test_293.root\n'
p284
aS'/store/group/phys_diffraction/lbyl_2018/mc_lbl/digi_raw/digi_raw_lbl/digi_raw_lbl/190717_184152/0000/digi_raw_test_294.root\n'
p285
aS'/store/group/phys_diffraction/lbyl_2018/mc_lbl/digi_raw/digi_raw_lbl/digi_raw_lbl/190717_184152/0000/digi_raw_test_295.root\n'
p286
aS'/store/group/phys_diffraction/lbyl_2018/mc_lbl/digi_raw/digi_raw_lbl/digi_raw_lbl/190717_184152/0000/digi_raw_test_296.root\n'
p287
aS'/store/group/phys_diffraction/lbyl_2018/mc_lbl/digi_raw/digi_raw_lbl/digi_raw_lbl/190717_184152/0000/digi_raw_test_297.root\n'
p288
aS'/store/group/phys_diffraction/lbyl_2018/mc_lbl/digi_raw/digi_raw_lbl/digi_raw_lbl/190717_184152/0000/digi_raw_test_298.root\n'
p289
aS'/store/group/phys_diffraction/lbyl_2018/mc_lbl/digi_raw/digi_raw_lbl/digi_raw_lbl/190717_184152/0000/digi_raw_test_299.root\n'
p290
aS'/store/group/phys_diffraction/lbyl_2018/mc_lbl/digi_raw/digi_raw_lbl/digi_raw_lbl/190717_184152/0000/digi_raw_test_30.root\n'
p291
aS'/store/group/phys_diffraction/lbyl_2018/mc_lbl/digi_raw/digi_raw_lbl/digi_raw_lbl/190717_184152/0000/digi_raw_test_300.root\n'
p292
aS'/store/group/phys_diffraction/lbyl_2018/mc_lbl/digi_raw/digi_raw_lbl/digi_raw_lbl/190717_184152/0000/digi_raw_test_301.root\n'
p293
aS'/store/group/phys_diffraction/lbyl_2018/mc_lbl/digi_raw/digi_raw_lbl/digi_raw_lbl/190717_184152/0000/digi_raw_test_302.root\n'
p294
aS'/store/group/phys_diffraction/lbyl_2018/mc_lbl/digi_raw/digi_raw_lbl/digi_raw_lbl/190717_184152/0000/digi_raw_test_303.root\n'
p295
aS'/store/group/phys_diffraction/lbyl_2018/mc_lbl/digi_raw/digi_raw_lbl/digi_raw_lbl/190717_184152/0000/digi_raw_test_304.root\n'
p296
aS'/store/group/phys_diffraction/lbyl_2018/mc_lbl/digi_raw/digi_raw_lbl/digi_raw_lbl/190717_184152/0000/digi_raw_test_305.root\n'
p297
aS'/store/group/phys_diffraction/lbyl_2018/mc_lbl/digi_raw/digi_raw_lbl/digi_raw_lbl/190717_184152/0000/digi_raw_test_306.root\n'
p298
aS'/store/group/phys_diffraction/lbyl_2018/mc_lbl/digi_raw/digi_raw_lbl/digi_raw_lbl/190717_184152/0000/digi_raw_test_307.root\n'
p299
aS'/store/group/phys_diffraction/lbyl_2018/mc_lbl/digi_raw/digi_raw_lbl/digi_raw_lbl/190717_184152/0000/digi_raw_test_308.root\n'
p300
aS'/store/group/phys_diffraction/lbyl_2018/mc_lbl/digi_raw/digi_raw_lbl/digi_raw_lbl/190717_184152/0000/digi_raw_test_309.root\n'
p301
aS'/store/group/phys_diffraction/lbyl_2018/mc_lbl/digi_raw/digi_raw_lbl/digi_raw_lbl/190717_184152/0000/digi_raw_test_31.root\n'
p302
aS'/store/group/phys_diffraction/lbyl_2018/mc_lbl/digi_raw/digi_raw_lbl/digi_raw_lbl/190717_184152/0000/digi_raw_test_310.root\n'
p303
aS'/store/group/phys_diffraction/lbyl_2018/mc_lbl/digi_raw/digi_raw_lbl/digi_raw_lbl/190717_184152/0000/digi_raw_test_311.root\n'
p304
aS'/store/group/phys_diffraction/lbyl_2018/mc_lbl/digi_raw/digi_raw_lbl/digi_raw_lbl/190717_184152/0000/digi_raw_test_312.root\n'
p305
aS'/store/group/phys_diffraction/lbyl_2018/mc_lbl/digi_raw/digi_raw_lbl/digi_raw_lbl/190717_184152/0000/digi_raw_test_313.root\n'
p306
aS'/store/group/phys_diffraction/lbyl_2018/mc_lbl/digi_raw/digi_raw_lbl/digi_raw_lbl/190717_184152/0000/digi_raw_test_314.root\n'
p307
aS'/store/group/phys_diffraction/lbyl_2018/mc_lbl/digi_raw/digi_raw_lbl/digi_raw_lbl/190717_184152/0000/digi_raw_test_315.root\n'
p308
aS'/store/group/phys_diffraction/lbyl_2018/mc_lbl/digi_raw/digi_raw_lbl/digi_raw_lbl/190717_184152/0000/digi_raw_test_316.root\n'
p309
aS'/store/group/phys_diffraction/lbyl_2018/mc_lbl/digi_raw/digi_raw_lbl/digi_raw_lbl/190717_184152/0000/digi_raw_test_318.root\n'
p310
aS'/store/group/phys_diffraction/lbyl_2018/mc_lbl/digi_raw/digi_raw_lbl/digi_raw_lbl/190717_184152/0000/digi_raw_test_319.root\n'
p311
aS'/store/group/phys_diffraction/lbyl_2018/mc_lbl/digi_raw/digi_raw_lbl/digi_raw_lbl/190717_184152/0000/digi_raw_test_32.root\n'
p312
aS'/store/group/phys_diffraction/lbyl_2018/mc_lbl/digi_raw/digi_raw_lbl/digi_raw_lbl/190717_184152/0000/digi_raw_test_320.root\n'
p313
aS'/store/group/phys_diffraction/lbyl_2018/mc_lbl/digi_raw/digi_raw_lbl/digi_raw_lbl/190717_184152/0000/digi_raw_test_321.root\n'
p314
aS'/store/group/phys_diffraction/lbyl_2018/mc_lbl/digi_raw/digi_raw_lbl/digi_raw_lbl/190717_184152/0000/digi_raw_test_322.root\n'
p315
aS'/store/group/phys_diffraction/lbyl_2018/mc_lbl/digi_raw/digi_raw_lbl/digi_raw_lbl/190717_184152/0000/digi_raw_test_323.root\n'
p316
aS'/store/group/phys_diffraction/lbyl_2018/mc_lbl/digi_raw/digi_raw_lbl/digi_raw_lbl/190717_184152/0000/digi_raw_test_324.root\n'
p317
aS'/store/group/phys_diffraction/lbyl_2018/mc_lbl/digi_raw/digi_raw_lbl/digi_raw_lbl/190717_184152/0000/digi_raw_test_325.root\n'
p318
aS'/store/group/phys_diffraction/lbyl_2018/mc_lbl/digi_raw/digi_raw_lbl/digi_raw_lbl/190717_184152/0000/digi_raw_test_326.root\n'
p319
aS'/store/group/phys_diffraction/lbyl_2018/mc_lbl/digi_raw/digi_raw_lbl/digi_raw_lbl/190717_184152/0000/digi_raw_test_327.root\n'
p320
aS'/store/group/phys_diffraction/lbyl_2018/mc_lbl/digi_raw/digi_raw_lbl/digi_raw_lbl/190717_184152/0000/digi_raw_test_328.root\n'
p321
aS'/store/group/phys_diffraction/lbyl_2018/mc_lbl/digi_raw/digi_raw_lbl/digi_raw_lbl/190717_184152/0000/digi_raw_test_329.root\n'
p322
aS'/store/group/phys_diffraction/lbyl_2018/mc_lbl/digi_raw/digi_raw_lbl/digi_raw_lbl/190717_184152/0000/digi_raw_test_330.root\n'
p323
aS'/store/group/phys_diffraction/lbyl_2018/mc_lbl/digi_raw/digi_raw_lbl/digi_raw_lbl/190717_184152/0000/digi_raw_test_331.root\n'
p324
aS'/store/group/phys_diffraction/lbyl_2018/mc_lbl/digi_raw/digi_raw_lbl/digi_raw_lbl/190717_184152/0000/digi_raw_test_332.root\n'
p325
aS'/store/group/phys_diffraction/lbyl_2018/mc_lbl/digi_raw/digi_raw_lbl/digi_raw_lbl/190717_184152/0000/digi_raw_test_333.root\n'
p326
aS'/store/group/phys_diffraction/lbyl_2018/mc_lbl/digi_raw/digi_raw_lbl/digi_raw_lbl/190717_184152/0000/digi_raw_test_334.root\n'
p327
aS'/store/group/phys_diffraction/lbyl_2018/mc_lbl/digi_raw/digi_raw_lbl/digi_raw_lbl/190717_184152/0000/digi_raw_test_335.root\n'
p328
aS'/store/group/phys_diffraction/lbyl_2018/mc_lbl/digi_raw/digi_raw_lbl/digi_raw_lbl/190717_184152/0000/digi_raw_test_336.root\n'
p329
aS'/store/group/phys_diffraction/lbyl_2018/mc_lbl/digi_raw/digi_raw_lbl/digi_raw_lbl/190717_184152/0000/digi_raw_test_337.root\n'
p330
aS'/store/group/phys_diffraction/lbyl_2018/mc_lbl/digi_raw/digi_raw_lbl/digi_raw_lbl/190717_184152/0000/digi_raw_test_338.root\n'
p331
aS'/store/group/phys_diffraction/lbyl_2018/mc_lbl/digi_raw/digi_raw_lbl/digi_raw_lbl/190717_184152/0000/digi_raw_test_34.root\n'
p332
aS'/store/group/phys_diffraction/lbyl_2018/mc_lbl/digi_raw/digi_raw_lbl/digi_raw_lbl/190717_184152/0000/digi_raw_test_341.root\n'
p333
aS'/store/group/phys_diffraction/lbyl_2018/mc_lbl/digi_raw/digi_raw_lbl/digi_raw_lbl/190717_184152/0000/digi_raw_test_342.root\n'
p334
aS'/store/group/phys_diffraction/lbyl_2018/mc_lbl/digi_raw/digi_raw_lbl/digi_raw_lbl/190717_184152/0000/digi_raw_test_343.root\n'
p335
aS'/store/group/phys_diffraction/lbyl_2018/mc_lbl/digi_raw/digi_raw_lbl/digi_raw_lbl/190717_184152/0000/digi_raw_test_344.root\n'
p336
aS'/store/group/phys_diffraction/lbyl_2018/mc_lbl/digi_raw/digi_raw_lbl/digi_raw_lbl/190717_184152/0000/digi_raw_test_345.root\n'
p337
aS'/store/group/phys_diffraction/lbyl_2018/mc_lbl/digi_raw/digi_raw_lbl/digi_raw_lbl/190717_184152/0000/digi_raw_test_346.root\n'
p338
aS'/store/group/phys_diffraction/lbyl_2018/mc_lbl/digi_raw/digi_raw_lbl/digi_raw_lbl/190717_184152/0000/digi_raw_test_347.root\n'
p339
aS'/store/group/phys_diffraction/lbyl_2018/mc_lbl/digi_raw/digi_raw_lbl/digi_raw_lbl/190717_184152/0000/digi_raw_test_348.root\n'
p340
aS'/store/group/phys_diffraction/lbyl_2018/mc_lbl/digi_raw/digi_raw_lbl/digi_raw_lbl/190717_184152/0000/digi_raw_test_349.root\n'
p341
aS'/store/group/phys_diffraction/lbyl_2018/mc_lbl/digi_raw/digi_raw_lbl/digi_raw_lbl/190717_184152/0000/digi_raw_test_35.root\n'
p342
aS'/store/group/phys_diffraction/lbyl_2018/mc_lbl/digi_raw/digi_raw_lbl/digi_raw_lbl/190717_184152/0000/digi_raw_test_350.root\n'
p343
aS'/store/group/phys_diffraction/lbyl_2018/mc_lbl/digi_raw/digi_raw_lbl/digi_raw_lbl/190717_184152/0000/digi_raw_test_351.root\n'
p344
aS'/store/group/phys_diffraction/lbyl_2018/mc_lbl/digi_raw/digi_raw_lbl/digi_raw_lbl/190717_184152/0000/digi_raw_test_352.root\n'
p345
aS'/store/group/phys_diffraction/lbyl_2018/mc_lbl/digi_raw/digi_raw_lbl/digi_raw_lbl/190717_184152/0000/digi_raw_test_353.root\n'
p346
aS'/store/group/phys_diffraction/lbyl_2018/mc_lbl/digi_raw/digi_raw_lbl/digi_raw_lbl/190717_184152/0000/digi_raw_test_354.root\n'
p347
aS'/store/group/phys_diffraction/lbyl_2018/mc_lbl/digi_raw/digi_raw_lbl/digi_raw_lbl/190717_184152/0000/digi_raw_test_355.root\n'
p348
aS'/store/group/phys_diffraction/lbyl_2018/mc_lbl/digi_raw/digi_raw_lbl/digi_raw_lbl/190717_184152/0000/digi_raw_test_356.root\n'
p349
aS'/store/group/phys_diffraction/lbyl_2018/mc_lbl/digi_raw/digi_raw_lbl/digi_raw_lbl/190717_184152/0000/digi_raw_test_357.root\n'
p350
aS'/store/group/phys_diffraction/lbyl_2018/mc_lbl/digi_raw/digi_raw_lbl/digi_raw_lbl/190717_184152/0000/digi_raw_test_358.root\n'
p351
aS'/store/group/phys_diffraction/lbyl_2018/mc_lbl/digi_raw/digi_raw_lbl/digi_raw_lbl/190717_184152/0000/digi_raw_test_359.root\n'
p352
aS'/store/group/phys_diffraction/lbyl_2018/mc_lbl/digi_raw/digi_raw_lbl/digi_raw_lbl/190717_184152/0000/digi_raw_test_36.root\n'
p353
aS'/store/group/phys_diffraction/lbyl_2018/mc_lbl/digi_raw/digi_raw_lbl/digi_raw_lbl/190717_184152/0000/digi_raw_test_360.root\n'
p354
aS'/store/group/phys_diffraction/lbyl_2018/mc_lbl/digi_raw/digi_raw_lbl/digi_raw_lbl/190717_184152/0000/digi_raw_test_361.root\n'
p355
aS'/store/group/phys_diffraction/lbyl_2018/mc_lbl/digi_raw/digi_raw_lbl/digi_raw_lbl/190717_184152/0000/digi_raw_test_362.root\n'
p356
aS'/store/group/phys_diffraction/lbyl_2018/mc_lbl/digi_raw/digi_raw_lbl/digi_raw_lbl/190717_184152/0000/digi_raw_test_363.root\n'
p357
aS'/store/group/phys_diffraction/lbyl_2018/mc_lbl/digi_raw/digi_raw_lbl/digi_raw_lbl/190717_184152/0000/digi_raw_test_364.root\n'
p358
aS'/store/group/phys_diffraction/lbyl_2018/mc_lbl/digi_raw/digi_raw_lbl/digi_raw_lbl/190717_184152/0000/digi_raw_test_365.root\n'
p359
aS'/store/group/phys_diffraction/lbyl_2018/mc_lbl/digi_raw/digi_raw_lbl/digi_raw_lbl/190717_184152/0000/digi_raw_test_366.root\n'
p360
aS'/store/group/phys_diffraction/lbyl_2018/mc_lbl/digi_raw/digi_raw_lbl/digi_raw_lbl/190717_184152/0000/digi_raw_test_367.root\n'
p361
aS'/store/group/phys_diffraction/lbyl_2018/mc_lbl/digi_raw/digi_raw_lbl/digi_raw_lbl/190717_184152/0000/digi_raw_test_368.root\n'
p362
aS'/store/group/phys_diffraction/lbyl_2018/mc_lbl/digi_raw/digi_raw_lbl/digi_raw_lbl/190717_184152/0000/digi_raw_test_369.root\n'
p363
aS'/store/group/phys_diffraction/lbyl_2018/mc_lbl/digi_raw/digi_raw_lbl/digi_raw_lbl/190717_184152/0000/digi_raw_test_37.root\n'
p364
aS'/store/group/phys_diffraction/lbyl_2018/mc_lbl/digi_raw/digi_raw_lbl/digi_raw_lbl/190717_184152/0000/digi_raw_test_370.root\n'
p365
aS'/store/group/phys_diffraction/lbyl_2018/mc_lbl/digi_raw/digi_raw_lbl/digi_raw_lbl/190717_184152/0000/digi_raw_test_371.root\n'
p366
aS'/store/group/phys_diffraction/lbyl_2018/mc_lbl/digi_raw/digi_raw_lbl/digi_raw_lbl/190717_184152/0000/digi_raw_test_372.root\n'
p367
aS'/store/group/phys_diffraction/lbyl_2018/mc_lbl/digi_raw/digi_raw_lbl/digi_raw_lbl/190717_184152/0000/digi_raw_test_373.root\n'
p368
aS'/store/group/phys_diffraction/lbyl_2018/mc_lbl/digi_raw/digi_raw_lbl/digi_raw_lbl/190717_184152/0000/digi_raw_test_374.root\n'
p369
aS'/store/group/phys_diffraction/lbyl_2018/mc_lbl/digi_raw/digi_raw_lbl/digi_raw_lbl/190717_184152/0000/digi_raw_test_375.root\n'
p370
aS'/store/group/phys_diffraction/lbyl_2018/mc_lbl/digi_raw/digi_raw_lbl/digi_raw_lbl/190717_184152/0000/digi_raw_test_376.root\n'
p371
aS'/store/group/phys_diffraction/lbyl_2018/mc_lbl/digi_raw/digi_raw_lbl/digi_raw_lbl/190717_184152/0000/digi_raw_test_377.root\n'
p372
aS'/store/group/phys_diffraction/lbyl_2018/mc_lbl/digi_raw/digi_raw_lbl/digi_raw_lbl/190717_184152/0000/digi_raw_test_378.root\n'
p373
aS'/store/group/phys_diffraction/lbyl_2018/mc_lbl/digi_raw/digi_raw_lbl/digi_raw_lbl/190717_184152/0000/digi_raw_test_379.root\n'
p374
aS'/store/group/phys_diffraction/lbyl_2018/mc_lbl/digi_raw/digi_raw_lbl/digi_raw_lbl/190717_184152/0000/digi_raw_test_38.root\n'
p375
aS'/store/group/phys_diffraction/lbyl_2018/mc_lbl/digi_raw/digi_raw_lbl/digi_raw_lbl/190717_184152/0000/digi_raw_test_380.root\n'
p376
aS'/store/group/phys_diffraction/lbyl_2018/mc_lbl/digi_raw/digi_raw_lbl/digi_raw_lbl/190717_184152/0000/digi_raw_test_381.root\n'
p377
aS'/store/group/phys_diffraction/lbyl_2018/mc_lbl/digi_raw/digi_raw_lbl/digi_raw_lbl/190717_184152/0000/digi_raw_test_382.root\n'
p378
aS'/store/group/phys_diffraction/lbyl_2018/mc_lbl/digi_raw/digi_raw_lbl/digi_raw_lbl/190717_184152/0000/digi_raw_test_383.root\n'
p379
aS'/store/group/phys_diffraction/lbyl_2018/mc_lbl/digi_raw/digi_raw_lbl/digi_raw_lbl/190717_184152/0000/digi_raw_test_384.root\n'
p380
aS'/store/group/phys_diffraction/lbyl_2018/mc_lbl/digi_raw/digi_raw_lbl/digi_raw_lbl/190717_184152/0000/digi_raw_test_385.root\n'
p381
aS'/store/group/phys_diffraction/lbyl_2018/mc_lbl/digi_raw/digi_raw_lbl/digi_raw_lbl/190717_184152/0000/digi_raw_test_386.root\n'
p382
aS'/store/group/phys_diffraction/lbyl_2018/mc_lbl/digi_raw/digi_raw_lbl/digi_raw_lbl/190717_184152/0000/digi_raw_test_387.root\n'
p383
aS'/store/group/phys_diffraction/lbyl_2018/mc_lbl/digi_raw/digi_raw_lbl/digi_raw_lbl/190717_184152/0000/digi_raw_test_388.root\n'
p384
aS'/store/group/phys_diffraction/lbyl_2018/mc_lbl/digi_raw/digi_raw_lbl/digi_raw_lbl/190717_184152/0000/digi_raw_test_389.root\n'
p385
aS'/store/group/phys_diffraction/lbyl_2018/mc_lbl/digi_raw/digi_raw_lbl/digi_raw_lbl/190717_184152/0000/digi_raw_test_39.root\n'
p386
aS'/store/group/phys_diffraction/lbyl_2018/mc_lbl/digi_raw/digi_raw_lbl/digi_raw_lbl/190717_184152/0000/digi_raw_test_390.root\n'
p387
aS'/store/group/phys_diffraction/lbyl_2018/mc_lbl/digi_raw/digi_raw_lbl/digi_raw_lbl/190717_184152/0000/digi_raw_test_391.root\n'
p388
aS'/store/group/phys_diffraction/lbyl_2018/mc_lbl/digi_raw/digi_raw_lbl/digi_raw_lbl/190717_184152/0000/digi_raw_test_40.root\n'
p389
aS'/store/group/phys_diffraction/lbyl_2018/mc_lbl/digi_raw/digi_raw_lbl/digi_raw_lbl/190717_184152/0000/digi_raw_test_41.root\n'
p390
aS'/store/group/phys_diffraction/lbyl_2018/mc_lbl/digi_raw/digi_raw_lbl/digi_raw_lbl/190717_184152/0000/digi_raw_test_42.root\n'
p391
aS'/store/group/phys_diffraction/lbyl_2018/mc_lbl/digi_raw/digi_raw_lbl/digi_raw_lbl/190717_184152/0000/digi_raw_test_43.root\n'
p392
aS'/store/group/phys_diffraction/lbyl_2018/mc_lbl/digi_raw/digi_raw_lbl/digi_raw_lbl/190717_184152/0000/digi_raw_test_44.root\n'
p393
aS'/store/group/phys_diffraction/lbyl_2018/mc_lbl/digi_raw/digi_raw_lbl/digi_raw_lbl/190717_184152/0000/digi_raw_test_45.root\n'
p394
aS'/store/group/phys_diffraction/lbyl_2018/mc_lbl/digi_raw/digi_raw_lbl/digi_raw_lbl/190717_184152/0000/digi_raw_test_46.root\n'
p395
aS'/store/group/phys_diffraction/lbyl_2018/mc_lbl/digi_raw/digi_raw_lbl/digi_raw_lbl/190717_184152/0000/digi_raw_test_47.root\n'
p396
aS'/store/group/phys_diffraction/lbyl_2018/mc_lbl/digi_raw/digi_raw_lbl/digi_raw_lbl/190717_184152/0000/digi_raw_test_48.root\n'
p397
aS'/store/group/phys_diffraction/lbyl_2018/mc_lbl/digi_raw/digi_raw_lbl/digi_raw_lbl/190717_184152/0000/digi_raw_test_49.root\n'
p398
aS'/store/group/phys_diffraction/lbyl_2018/mc_lbl/digi_raw/digi_raw_lbl/digi_raw_lbl/190717_184152/0000/digi_raw_test_50.root\n'
p399
aS'/store/group/phys_diffraction/lbyl_2018/mc_lbl/digi_raw/digi_raw_lbl/digi_raw_lbl/190717_184152/0000/digi_raw_test_51.root\n'
p400
aS'/store/group/phys_diffraction/lbyl_2018/mc_lbl/digi_raw/digi_raw_lbl/digi_raw_lbl/190717_184152/0000/digi_raw_test_52.root\n'
p401
aS'/store/group/phys_diffraction/lbyl_2018/mc_lbl/digi_raw/digi_raw_lbl/digi_raw_lbl/190717_184152/0000/digi_raw_test_53.root\n'
p402
aS'/store/group/phys_diffraction/lbyl_2018/mc_lbl/digi_raw/digi_raw_lbl/digi_raw_lbl/190717_184152/0000/digi_raw_test_54.root\n'
p403
aS'/store/group/phys_diffraction/lbyl_2018/mc_lbl/digi_raw/digi_raw_lbl/digi_raw_lbl/190717_184152/0000/digi_raw_test_55.root\n'
p404
aS'/store/group/phys_diffraction/lbyl_2018/mc_lbl/digi_raw/digi_raw_lbl/digi_raw_lbl/190717_184152/0000/digi_raw_test_56.root\n'
p405
aS'/store/group/phys_diffraction/lbyl_2018/mc_lbl/digi_raw/digi_raw_lbl/digi_raw_lbl/190717_184152/0000/digi_raw_test_57.root\n'
p406
aS'/store/group/phys_diffraction/lbyl_2018/mc_lbl/digi_raw/digi_raw_lbl/digi_raw_lbl/190717_184152/0000/digi_raw_test_58.root\n'
p407
aS'/store/group/phys_diffraction/lbyl_2018/mc_lbl/digi_raw/digi_raw_lbl/digi_raw_lbl/190717_184152/0000/digi_raw_test_59.root\n'
p408
aS'/store/group/phys_diffraction/lbyl_2018/mc_lbl/digi_raw/digi_raw_lbl/digi_raw_lbl/190717_184152/0000/digi_raw_test_6.root\n'
p409
aS'/store/group/phys_diffraction/lbyl_2018/mc_lbl/digi_raw/digi_raw_lbl/digi_raw_lbl/190717_184152/0000/digi_raw_test_60.root\n'
p410
aS'/store/group/phys_diffraction/lbyl_2018/mc_lbl/digi_raw/digi_raw_lbl/digi_raw_lbl/190717_184152/0000/digi_raw_test_61.root\n'
p411
aS'/store/group/phys_diffraction/lbyl_2018/mc_lbl/digi_raw/digi_raw_lbl/digi_raw_lbl/190717_184152/0000/digi_raw_test_62.root\n'
p412
aS'/store/group/phys_diffraction/lbyl_2018/mc_lbl/digi_raw/digi_raw_lbl/digi_raw_lbl/190717_184152/0000/digi_raw_test_63.root\n'
p413
aS'/store/group/phys_diffraction/lbyl_2018/mc_lbl/digi_raw/digi_raw_lbl/digi_raw_lbl/190717_184152/0000/digi_raw_test_64.root\n'
p414
aS'/store/group/phys_diffraction/lbyl_2018/mc_lbl/digi_raw/digi_raw_lbl/digi_raw_lbl/190717_184152/0000/digi_raw_test_65.root\n'
p415
aS'/store/group/phys_diffraction/lbyl_2018/mc_lbl/digi_raw/digi_raw_lbl/digi_raw_lbl/190717_184152/0000/digi_raw_test_66.root\n'
p416
aS'/store/group/phys_diffraction/lbyl_2018/mc_lbl/digi_raw/digi_raw_lbl/digi_raw_lbl/190717_184152/0000/digi_raw_test_67.root\n'
p417
aS'/store/group/phys_diffraction/lbyl_2018/mc_lbl/digi_raw/digi_raw_lbl/digi_raw_lbl/190717_184152/0000/digi_raw_test_68.root\n'
p418
aS'/store/group/phys_diffraction/lbyl_2018/mc_lbl/digi_raw/digi_raw_lbl/digi_raw_lbl/190717_184152/0000/digi_raw_test_69.root\n'
p419
aS'/store/group/phys_diffraction/lbyl_2018/mc_lbl/digi_raw/digi_raw_lbl/digi_raw_lbl/190717_184152/0000/digi_raw_test_7.root\n'
p420
aS'/store/group/phys_diffraction/lbyl_2018/mc_lbl/digi_raw/digi_raw_lbl/digi_raw_lbl/190717_184152/0000/digi_raw_test_70.root\n'
p421
aS'/store/group/phys_diffraction/lbyl_2018/mc_lbl/digi_raw/digi_raw_lbl/digi_raw_lbl/190717_184152/0000/digi_raw_test_71.root\n'
p422
aS'/store/group/phys_diffraction/lbyl_2018/mc_lbl/digi_raw/digi_raw_lbl/digi_raw_lbl/190717_184152/0000/digi_raw_test_72.root\n'
p423
aS'/store/group/phys_diffraction/lbyl_2018/mc_lbl/digi_raw/digi_raw_lbl/digi_raw_lbl/190717_184152/0000/digi_raw_test_73.root\n'
p424
aS'/store/group/phys_diffraction/lbyl_2018/mc_lbl/digi_raw/digi_raw_lbl/digi_raw_lbl/190717_184152/0000/digi_raw_test_74.root\n'
p425
aS'/store/group/phys_diffraction/lbyl_2018/mc_lbl/digi_raw/digi_raw_lbl/digi_raw_lbl/190717_184152/0000/digi_raw_test_75.root\n'
p426
aS'/store/group/phys_diffraction/lbyl_2018/mc_lbl/digi_raw/digi_raw_lbl/digi_raw_lbl/190717_184152/0000/digi_raw_test_76.root\n'
p427
aS'/store/group/phys_diffraction/lbyl_2018/mc_lbl/digi_raw/digi_raw_lbl/digi_raw_lbl/190717_184152/0000/digi_raw_test_77.root\n'
p428
aS'/store/group/phys_diffraction/lbyl_2018/mc_lbl/digi_raw/digi_raw_lbl/digi_raw_lbl/190717_184152/0000/digi_raw_test_78.root\n'
p429
aS'/store/group/phys_diffraction/lbyl_2018/mc_lbl/digi_raw/digi_raw_lbl/digi_raw_lbl/190717_184152/0000/digi_raw_test_79.root\n'
p430
aS'/store/group/phys_diffraction/lbyl_2018/mc_lbl/digi_raw/digi_raw_lbl/digi_raw_lbl/190717_184152/0000/digi_raw_test_8.root\n'
p431
aS'/store/group/phys_diffraction/lbyl_2018/mc_lbl/digi_raw/digi_raw_lbl/digi_raw_lbl/190717_184152/0000/digi_raw_test_80.root\n'
p432
aS'/store/group/phys_diffraction/lbyl_2018/mc_lbl/digi_raw/digi_raw_lbl/digi_raw_lbl/190717_184152/0000/digi_raw_test_81.root\n'
p433
aS'/store/group/phys_diffraction/lbyl_2018/mc_lbl/digi_raw/digi_raw_lbl/digi_raw_lbl/190717_184152/0000/digi_raw_test_82.root\n'
p434
aS'/store/group/phys_diffraction/lbyl_2018/mc_lbl/digi_raw/digi_raw_lbl/digi_raw_lbl/190717_184152/0000/digi_raw_test_83.root\n'
p435
aS'/store/group/phys_diffraction/lbyl_2018/mc_lbl/digi_raw/digi_raw_lbl/digi_raw_lbl/190717_184152/0000/digi_raw_test_84.root\n'
p436
aS'/store/group/phys_diffraction/lbyl_2018/mc_lbl/digi_raw/digi_raw_lbl/digi_raw_lbl/190717_184152/0000/digi_raw_test_85.root\n'
p437
aS'/store/group/phys_diffraction/lbyl_2018/mc_lbl/digi_raw/digi_raw_lbl/digi_raw_lbl/190717_184152/0000/digi_raw_test_86.root\n'
p438
aS'/store/group/phys_diffraction/lbyl_2018/mc_lbl/digi_raw/digi_raw_lbl/digi_raw_lbl/190717_184152/0000/digi_raw_test_87.root\n'
p439
aS'/store/group/phys_diffraction/lbyl_2018/mc_lbl/digi_raw/digi_raw_lbl/digi_raw_lbl/190717_184152/0000/digi_raw_test_89.root\n'
p440
aS'/store/group/phys_diffraction/lbyl_2018/mc_lbl/digi_raw/digi_raw_lbl/digi_raw_lbl/190717_184152/0000/digi_raw_test_9.root\n'
p441
aS'/store/group/phys_diffraction/lbyl_2018/mc_lbl/digi_raw/digi_raw_lbl/digi_raw_lbl/190717_184152/0000/digi_raw_test_90.root\n'
p442
aS'/store/group/phys_diffraction/lbyl_2018/mc_lbl/digi_raw/digi_raw_lbl/digi_raw_lbl/190717_184152/0000/digi_raw_test_91.root\n'
p443
aS'/store/group/phys_diffraction/lbyl_2018/mc_lbl/digi_raw/digi_raw_lbl/digi_raw_lbl/190717_184152/0000/digi_raw_test_92.root\n'
p444
aS'/store/group/phys_diffraction/lbyl_2018/mc_lbl/digi_raw/digi_raw_lbl/digi_raw_lbl/190717_184152/0000/digi_raw_test_93.root\n'
p445
aS'/store/group/phys_diffraction/lbyl_2018/mc_lbl/digi_raw/digi_raw_lbl/digi_raw_lbl/190717_184152/0000/digi_raw_test_94.root\n'
p446
aS'/store/group/phys_diffraction/lbyl_2018/mc_lbl/digi_raw/digi_raw_lbl/digi_raw_lbl/190717_184152/0000/digi_raw_test_95.root\n'
p447
aS'/store/group/phys_diffraction/lbyl_2018/mc_lbl/digi_raw/digi_raw_lbl/digi_raw_lbl/190717_184152/0000/digi_raw_test_96.root\n'
p448
aS'/store/group/phys_diffraction/lbyl_2018/mc_lbl/digi_raw/digi_raw_lbl/digi_raw_lbl/190717_184152/0000/digi_raw_test_97.root\n'
p449
aS'/store/group/phys_diffraction/lbyl_2018/mc_lbl/digi_raw/digi_raw_lbl/digi_raw_lbl/190717_184152/0000/digi_raw_test_98.root\n'
p450
aS'/store/group/phys_diffraction/lbyl_2018/mc_lbl/digi_raw/digi_raw_lbl/digi_raw_lbl/190717_184152/0000/digi_raw_test_99.root\n'
p451
asg64
I01
sbsg29
g3
(g9
g5
NtRp452
(dp453
g12
I00
sg13
S''
sg14
g15
((lp454
S'psetName'
p455
aS'pluginName'
p456
aS'maxMemoryMB'
p457
atRp458
sg19
g29
sg20
(dp459
sg456
S'Analysis'
p460
sg22
g15
((ltRp461
sg455
S'step3_RAW2DIGI_L1Reco_RECO.py'
p462
sg25
Nsg457
I4000
sbsbsS'voGroup'
p463
S''
sS'Server'
p464
S'cmsweb.cern.ch'
p465
sS'instance'
p466
S'prod'
p467
sS'RequestName'
p468
V190718_093107:jniedzie_crab_reco_mc_lbl
p469
sS'voRole'
p470
S'NULL'
p471
sS'Port'
p472
S''
s.