(dp1
S'OriginalConfig'
p2
ccopy_reg
_reconstructor
p3
(cWMCore.Configuration
Configuration
p4
c__builtin__
object
p5
NtRp6
(dp7
S'Site'
p8
g3
(cWMCore.Configuration
ConfigSection
p9
g5
NtRp10
(dp11
S'_internal_skipChecks'
p12
I00
sS'_internal_documentation'
p13
S''
sS'_internal_settings'
p14
c__builtin__
set
p15
((lp16
S'storageSite'
p17
atRp18
sS'_internal_name'
p19
g8
sS'_internal_docstrings'
p20
(dp21
sS'_internal_children'
p22
g15
((ltRp23
sg17
S'T2_CH_CERN'
p24
sS'_internal_parent_ref'
p25
NsbsS'_internal_sections'
p26
(lp27
S'General'
p28
aS'JobType'
p29
aS'Data'
p30
ag8
aS'User'
p31
aS'Debug'
p32
asg28
g3
(g9
g5
NtRp33
(dp34
S'transferLogs'
p35
I01
sg12
I00
sg13
S''
sg14
g15
((lp36
g35
aS'transferOutputs'
p37
aS'workArea'
p38
aS'requestName'
p39
atRp40
sg19
g28
sg20
(dp41
sg37
I01
sg22
g15
((ltRp42
sg39
S'digi_raw_qed_sl_with_cuts'
p43
sg25
Nsg38
S'crab_projects'
p44
sbsS'_internal_webapps'
p45
(lp46
sg31
g3
(g9
g5
NtRp47
(dp48
g12
I00
sg13
S''
sg14
g15
((ltRp49
sg19
g31
sg20
(dp50
sg22
g15
((ltRp51
sg25
NsbsS'_internal_components'
p52
(lp53
sg32
g3
(g9
g5
NtRp54
(dp55
g12
I00
sg13
S''
sg14
g15
((ltRp56
sg19
g32
sg20
(dp57
sg22
g15
((ltRp58
sg25
Nsbsg30
g3
(g9
g5
NtRp59
(dp60
S'allowNonValidInputDataset'
p61
I01
sg12
I00
sS'unitsPerJob'
p62
I1
sg13
S''
sg14
g15
((lp63
g61
aS'publication'
p64
ag62
aS'userInputFiles'
p65
aS'splitting'
p66
aS'outputDatasetTag'
p67
aS'outLFNDirBase'
p68
aS'outputPrimaryDataset'
p69
atRp70
sg68
S'/store/group/phys_diffraction/lbyl_2018/mc_qed/digi_raw_qed_starlight_with_cuts'
p71
sg19
g30
sg66
S'FileBased'
p72
sg20
(dp73
sg67
g43
sg22
g15
((ltRp74
sg69
g43
sg25
Nsg65
(lp75
S'/store/group/phys_diffraction/lbyl_2018/mc_qed/gen_sim_qed_starlight_with_cuts/gen_sim_qed_starlight_with_cuts/gen_sim_qed_superchic_with_cuts/190716_092658/0000/failed/LbyL_gen_sim_251.root\n'
p76
aS'/store/group/phys_diffraction/lbyl_2018/mc_qed/gen_sim_qed_starlight_with_cuts/gen_sim_qed_starlight_with_cuts/gen_sim_qed_superchic_with_cuts/190716_092658/0000/failed/LbyL_gen_sim_364.root\n'
p77
aS'/store/group/phys_diffraction/lbyl_2018/mc_qed/gen_sim_qed_starlight_with_cuts/gen_sim_qed_starlight_with_cuts/gen_sim_qed_superchic_with_cuts/190716_092658/0000/failed/LbyL_gen_sim_401.root\n'
p78
aS'/store/group/phys_diffraction/lbyl_2018/mc_qed/gen_sim_qed_starlight_with_cuts/gen_sim_qed_starlight_with_cuts/gen_sim_qed_superchic_with_cuts/190716_092658/0000/failed/LbyL_gen_sim_406.root\n'
p79
aS'/store/group/phys_diffraction/lbyl_2018/mc_qed/gen_sim_qed_starlight_with_cuts/gen_sim_qed_starlight_with_cuts/gen_sim_qed_superchic_with_cuts/190716_092658/0000/failed/LbyL_gen_sim_414.root\n'
p80
aS'/store/group/phys_diffraction/lbyl_2018/mc_qed/gen_sim_qed_starlight_with_cuts/gen_sim_qed_starlight_with_cuts/gen_sim_qed_superchic_with_cuts/190716_092658/0000/failed/LbyL_gen_sim_416.root\n'
p81
aS'/store/group/phys_diffraction/lbyl_2018/mc_qed/gen_sim_qed_starlight_with_cuts/gen_sim_qed_starlight_with_cuts/gen_sim_qed_superchic_with_cuts/190716_092658/0000/failed/LbyL_gen_sim_435.root\n'
p82
aS'/store/group/phys_diffraction/lbyl_2018/mc_qed/gen_sim_qed_starlight_with_cuts/gen_sim_qed_starlight_with_cuts/gen_sim_qed_superchic_with_cuts/190716_092658/0000/failed/LbyL_gen_sim_438.root\n'
p83
aS'/store/group/phys_diffraction/lbyl_2018/mc_qed/gen_sim_qed_starlight_with_cuts/gen_sim_qed_starlight_with_cuts/gen_sim_qed_superchic_with_cuts/190716_092658/0000/failed/LbyL_gen_sim_451.root\n'
p84
aS'/store/group/phys_diffraction/lbyl_2018/mc_qed/gen_sim_qed_starlight_with_cuts/gen_sim_qed_starlight_with_cuts/gen_sim_qed_superchic_with_cuts/190716_092658/0000/failed/LbyL_gen_sim_500.root\n'
p85
aS'/store/group/phys_diffraction/lbyl_2018/mc_qed/gen_sim_qed_starlight_with_cuts/gen_sim_qed_starlight_with_cuts/gen_sim_qed_superchic_with_cuts/190716_092658/0000/failed/LbyL_gen_sim_543.root\n'
p86
aS'/store/group/phys_diffraction/lbyl_2018/mc_qed/gen_sim_qed_starlight_with_cuts/gen_sim_qed_starlight_with_cuts/gen_sim_qed_superchic_with_cuts/190716_092658/0000/failed/LbyL_gen_sim_557.root\n'
p87
aS'/store/group/phys_diffraction/lbyl_2018/mc_qed/gen_sim_qed_starlight_with_cuts/gen_sim_qed_starlight_with_cuts/gen_sim_qed_superchic_with_cuts/190716_092658/0000/failed/LbyL_gen_sim_565.root\n'
p88
aS'/store/group/phys_diffraction/lbyl_2018/mc_qed/gen_sim_qed_starlight_with_cuts/gen_sim_qed_starlight_with_cuts/gen_sim_qed_superchic_with_cuts/190716_092658/0000/failed/LbyL_gen_sim_584.root\n'
p89
aS'/store/group/phys_diffraction/lbyl_2018/mc_qed/gen_sim_qed_starlight_with_cuts/gen_sim_qed_starlight_with_cuts/gen_sim_qed_superchic_with_cuts/190716_092658/0000/failed/LbyL_gen_sim_601.root\n'
p90
aS'/store/group/phys_diffraction/lbyl_2018/mc_qed/gen_sim_qed_starlight_with_cuts/gen_sim_qed_starlight_with_cuts/gen_sim_qed_superchic_with_cuts/190716_092658/0000/failed/LbyL_gen_sim_632.root\n'
p91
aS'/store/group/phys_diffraction/lbyl_2018/mc_qed/gen_sim_qed_starlight_with_cuts/gen_sim_qed_starlight_with_cuts/gen_sim_qed_superchic_with_cuts/190716_092658/0000/failed/LbyL_gen_sim_665.root\n'
p92
aS'/store/group/phys_diffraction/lbyl_2018/mc_qed/gen_sim_qed_starlight_with_cuts/gen_sim_qed_starlight_with_cuts/gen_sim_qed_superchic_with_cuts/190716_092658/0000/failed/LbyL_gen_sim_670.root\n'
p93
aS'/store/group/phys_diffraction/lbyl_2018/mc_qed/gen_sim_qed_starlight_with_cuts/gen_sim_qed_starlight_with_cuts/gen_sim_qed_superchic_with_cuts/190716_092658/0000/failed/LbyL_gen_sim_671.root\n'
p94
aS'/store/group/phys_diffraction/lbyl_2018/mc_qed/gen_sim_qed_starlight_with_cuts/gen_sim_qed_starlight_with_cuts/gen_sim_qed_superchic_with_cuts/190716_092658/0000/failed/LbyL_gen_sim_714.root\n'
p95
aS'/store/group/phys_diffraction/lbyl_2018/mc_qed/gen_sim_qed_starlight_with_cuts/gen_sim_qed_starlight_with_cuts/gen_sim_qed_superchic_with_cuts/190716_092658/0001/failed/LbyL_gen_sim_1101.root\n'
p96
aS'/store/group/phys_diffraction/lbyl_2018/mc_qed/gen_sim_qed_starlight_with_cuts/gen_sim_qed_starlight_with_cuts/gen_sim_qed_superchic_with_cuts/190716_092658/0001/failed/LbyL_gen_sim_1784.root\n'
p97
aS'/store/group/phys_diffraction/lbyl_2018/mc_qed/gen_sim_qed_starlight_with_cuts/gen_sim_qed_starlight_with_cuts/gen_sim_qed_superchic_with_cuts/190716_092658/0002/failed/LbyL_gen_sim_2199.root\n'
p98
aS'/store/group/phys_diffraction/lbyl_2018/mc_qed/gen_sim_qed_starlight_with_cuts/gen_sim_qed_starlight_with_cuts/gen_sim_qed_superchic_with_cuts/190716_092658/0002/failed/LbyL_gen_sim_2214.root\n'
p99
aS'/store/group/phys_diffraction/lbyl_2018/mc_qed/gen_sim_qed_starlight_with_cuts/gen_sim_qed_starlight_with_cuts/gen_sim_qed_superchic_with_cuts/190716_092658/0002/failed/LbyL_gen_sim_2222.root\n'
p100
aS'/store/group/phys_diffraction/lbyl_2018/mc_qed/gen_sim_qed_starlight_with_cuts/gen_sim_qed_starlight_with_cuts/gen_sim_qed_superchic_with_cuts/190716_092658/0002/failed/LbyL_gen_sim_2225.root\n'
p101
aS'/store/group/phys_diffraction/lbyl_2018/mc_qed/gen_sim_qed_starlight_with_cuts/gen_sim_qed_starlight_with_cuts/gen_sim_qed_superchic_with_cuts/190716_092658/0002/failed/LbyL_gen_sim_2503.root\n'
p102
aS'/store/group/phys_diffraction/lbyl_2018/mc_qed/gen_sim_qed_starlight_with_cuts/gen_sim_qed_starlight_with_cuts/gen_sim_qed_superchic_with_cuts/190716_092658/0002/failed/LbyL_gen_sim_2591.root\n'
p103
aS'/store/group/phys_diffraction/lbyl_2018/mc_qed/gen_sim_qed_starlight_with_cuts/gen_sim_qed_starlight_with_cuts/gen_sim_qed_superchic_with_cuts/190716_092658/0002/failed/LbyL_gen_sim_2783.root\n'
p104
aS'/store/group/phys_diffraction/lbyl_2018/mc_qed/gen_sim_qed_starlight_with_cuts/gen_sim_qed_starlight_with_cuts/gen_sim_qed_superchic_with_cuts/190716_092658/0002/failed/LbyL_gen_sim_2801.root\n'
p105
aS'/store/group/phys_diffraction/lbyl_2018/mc_qed/gen_sim_qed_starlight_with_cuts/gen_sim_qed_starlight_with_cuts/gen_sim_qed_superchic_with_cuts/190716_092658/0002/failed/LbyL_gen_sim_2840.root\n'
p106
aS'/store/group/phys_diffraction/lbyl_2018/mc_qed/gen_sim_qed_starlight_with_cuts/gen_sim_qed_starlight_with_cuts/gen_sim_qed_superchic_with_cuts/190716_092658/0003/failed/LbyL_gen_sim_3065.root\n'
p107
aS'/store/group/phys_diffraction/lbyl_2018/mc_qed/gen_sim_qed_starlight_with_cuts/gen_sim_qed_starlight_with_cuts/gen_sim_qed_superchic_with_cuts/190716_092658/0003/failed/LbyL_gen_sim_3066.root\n'
p108
aS'/store/group/phys_diffraction/lbyl_2018/mc_qed/gen_sim_qed_starlight_with_cuts/gen_sim_qed_starlight_with_cuts/gen_sim_qed_superchic_with_cuts/190716_092658/0003/failed/LbyL_gen_sim_3074.root\n'
p109
aS'/store/group/phys_diffraction/lbyl_2018/mc_qed/gen_sim_qed_starlight_with_cuts/gen_sim_qed_starlight_with_cuts/gen_sim_qed_superchic_with_cuts/190716_092658/0003/failed/LbyL_gen_sim_3080.root\n'
p110
aS'/store/group/phys_diffraction/lbyl_2018/mc_qed/gen_sim_qed_starlight_with_cuts/gen_sim_qed_starlight_with_cuts/gen_sim_qed_superchic_with_cuts/190716_092658/0003/failed/LbyL_gen_sim_3351.root\n'
p111
aS'/store/group/phys_diffraction/lbyl_2018/mc_qed/gen_sim_qed_starlight_with_cuts/gen_sim_qed_starlight_with_cuts/gen_sim_qed_superchic_with_cuts/190716_092658/0003/failed/LbyL_gen_sim_3378.root\n'
p112
aS'/store/group/phys_diffraction/lbyl_2018/mc_qed/gen_sim_qed_starlight_with_cuts/gen_sim_qed_starlight_with_cuts/gen_sim_qed_superchic_with_cuts/190716_092658/0003/failed/LbyL_gen_sim_3383.root\n'
p113
aS'/store/group/phys_diffraction/lbyl_2018/mc_qed/gen_sim_qed_starlight_with_cuts/gen_sim_qed_starlight_with_cuts/gen_sim_qed_superchic_with_cuts/190716_092658/0003/failed/LbyL_gen_sim_3628.root\n'
p114
aS'/store/group/phys_diffraction/lbyl_2018/mc_qed/gen_sim_qed_starlight_with_cuts/gen_sim_qed_starlight_with_cuts/gen_sim_qed_superchic_with_cuts/190716_092658/0003/failed/LbyL_gen_sim_3649.root\n'
p115
aS'/store/group/phys_diffraction/lbyl_2018/mc_qed/gen_sim_qed_starlight_with_cuts/gen_sim_qed_starlight_with_cuts/gen_sim_qed_superchic_with_cuts/190716_092658/0003/failed/LbyL_gen_sim_3841.root\n'
p116
aS'/store/group/phys_diffraction/lbyl_2018/mc_qed/gen_sim_qed_starlight_with_cuts/gen_sim_qed_starlight_with_cuts/gen_sim_qed_superchic_with_cuts/190716_092658/0004/failed/LbyL_gen_sim_4104.root\n'
p117
aS'/store/group/phys_diffraction/lbyl_2018/mc_qed/gen_sim_qed_starlight_with_cuts/gen_sim_qed_starlight_with_cuts/gen_sim_qed_superchic_with_cuts/190716_092658/0004/failed/LbyL_gen_sim_4193.root\n'
p118
aS'/store/group/phys_diffraction/lbyl_2018/mc_qed/gen_sim_qed_starlight_with_cuts/gen_sim_qed_starlight_with_cuts/gen_sim_qed_superchic_with_cuts/190716_092658/0004/failed/LbyL_gen_sim_4611.root\n'
p119
aS'/store/group/phys_diffraction/lbyl_2018/mc_qed/gen_sim_qed_starlight_with_cuts/gen_sim_qed_starlight_with_cuts/gen_sim_qed_superchic_with_cuts/190716_092658/0004/failed/LbyL_gen_sim_4984.root\n'
p120
aS'/store/group/phys_diffraction/lbyl_2018/mc_qed/gen_sim_qed_starlight_with_cuts/gen_sim_qed_starlight_with_cuts/gen_sim_qed_superchic_with_cuts/190716_092658/0005/failed/LbyL_gen_sim_5952.root\n'
p121
aS'/store/group/phys_diffraction/lbyl_2018/mc_qed/gen_sim_qed_starlight_with_cuts/gen_sim_qed_starlight_with_cuts/gen_sim_qed_superchic_with_cuts/190716_092658/0005/failed/LbyL_gen_sim_5953.root\n'
p122
aS'/store/group/phys_diffraction/lbyl_2018/mc_qed/gen_sim_qed_starlight_with_cuts/gen_sim_qed_starlight_with_cuts/gen_sim_qed_superchic_with_cuts/190716_092658/0005/failed/LbyL_gen_sim_5956.root\n'
p123
aS'/store/group/phys_diffraction/lbyl_2018/mc_qed/gen_sim_qed_starlight_with_cuts/gen_sim_qed_starlight_with_cuts/gen_sim_qed_superchic_with_cuts/190716_092658/0006/failed/LbyL_gen_sim_6190.root\n'
p124
asg64
I01
sbsg29
g3
(g9
g5
NtRp125
(dp126
g12
I00
sg13
S''
sg14
g15
((lp127
S'psetName'
p128
aS'pluginName'
p129
aS'maxMemoryMB'
p130
atRp131
sg19
g29
sg20
(dp132
sg129
S'Analysis'
p133
sg22
g15
((ltRp134
sg128
S'step2_DIGI_L1_DIGI2RAW_HLT.py'
p135
sg25
Nsg130
I4000
sbsbsS'voGroup'
p136
S''
sS'Server'
p137
S'cmsweb.cern.ch'
p138
sS'instance'
p139
S'prod'
p140
sS'RequestName'
p141
V190717_184218:jniedzie_crab_digi_raw_qed_sl_with_cuts
p142
sS'voRole'
p143
S'NULL'
p144
sS'Port'
p145
S''
s.