(dp1
S'OriginalConfig'
p2
ccopy_reg
_reconstructor
p3
(cWMCore.Configuration
Configuration
p4
c__builtin__
object
p5
NtRp6
(dp7
S'Site'
p8
g3
(cWMCore.Configuration
ConfigSection
p9
g5
NtRp10
(dp11
S'_internal_skipChecks'
p12
I00
sS'_internal_documentation'
p13
S''
sS'_internal_settings'
p14
c__builtin__
set
p15
((lp16
S'storageSite'
p17
atRp18
sS'_internal_name'
p19
g8
sS'_internal_docstrings'
p20
(dp21
sS'_internal_children'
p22
g15
((ltRp23
sg17
S'T2_CH_CERN'
p24
sS'_internal_parent_ref'
p25
NsbsS'_internal_sections'
p26
(lp27
S'General'
p28
aS'JobType'
p29
aS'Data'
p30
ag8
aS'User'
p31
aS'Debug'
p32
asg28
g3
(g9
g5
NtRp33
(dp34
S'transferLogs'
p35
I01
sg12
I00
sg13
S''
sg14
g15
((lp36
g35
aS'transferOutputs'
p37
aS'workArea'
p38
aS'requestName'
p39
atRp40
sg19
g28
sg20
(dp41
sg37
I01
sg22
g15
((ltRp42
sg39
S'digi_raw_lbl'
p43
sg25
Nsg38
S'crab_projects'
p44
sbsS'_internal_webapps'
p45
(lp46
sg31
g3
(g9
g5
NtRp47
(dp48
g12
I00
sg13
S''
sg14
g15
((ltRp49
sg19
g31
sg20
(dp50
sg22
g15
((ltRp51
sg25
NsbsS'_internal_components'
p52
(lp53
sg32
g3
(g9
g5
NtRp54
(dp55
g12
I00
sg13
S''
sg14
g15
((ltRp56
sg19
g32
sg20
(dp57
sg22
g15
((ltRp58
sg25
Nsbsg30
g3
(g9
g5
NtRp59
(dp60
S'allowNonValidInputDataset'
p61
I01
sg12
I00
sS'unitsPerJob'
p62
I1
sg13
S''
sg14
g15
((lp63
g61
aS'publication'
p64
ag62
aS'userInputFiles'
p65
aS'splitting'
p66
aS'outputDatasetTag'
p67
aS'outLFNDirBase'
p68
aS'outputPrimaryDataset'
p69
atRp70
sg68
S'/store/group/phys_diffraction/lbyl_2018/mc_lbl/digi_raw'
p71
sg19
g30
sg66
S'FileBased'
p72
sg20
(dp73
sg67
g43
sg22
g15
((ltRp74
sg69
g43
sg25
Nsg65
(lp75
S'/store/group/phys_diffraction/lbyl_2018/mc_lbyl/gen_sim/gen_sim_lbyl/gen_sim_lbyl/190716_093613/0000/LbyL_gen_sim_10.root\n'
p76
aS'/store/group/phys_diffraction/lbyl_2018/mc_lbyl/gen_sim/gen_sim_lbyl/gen_sim_lbyl/190716_093613/0000/LbyL_gen_sim_100.root\n'
p77
aS'/store/group/phys_diffraction/lbyl_2018/mc_lbyl/gen_sim/gen_sim_lbyl/gen_sim_lbyl/190716_093613/0000/LbyL_gen_sim_101.root\n'
p78
aS'/store/group/phys_diffraction/lbyl_2018/mc_lbyl/gen_sim/gen_sim_lbyl/gen_sim_lbyl/190716_093613/0000/LbyL_gen_sim_102.root\n'
p79
aS'/store/group/phys_diffraction/lbyl_2018/mc_lbyl/gen_sim/gen_sim_lbyl/gen_sim_lbyl/190716_093613/0000/LbyL_gen_sim_103.root\n'
p80
aS'/store/group/phys_diffraction/lbyl_2018/mc_lbyl/gen_sim/gen_sim_lbyl/gen_sim_lbyl/190716_093613/0000/LbyL_gen_sim_104.root\n'
p81
aS'/store/group/phys_diffraction/lbyl_2018/mc_lbyl/gen_sim/gen_sim_lbyl/gen_sim_lbyl/190716_093613/0000/LbyL_gen_sim_105.root\n'
p82
aS'/store/group/phys_diffraction/lbyl_2018/mc_lbyl/gen_sim/gen_sim_lbyl/gen_sim_lbyl/190716_093613/0000/LbyL_gen_sim_106.root\n'
p83
aS'/store/group/phys_diffraction/lbyl_2018/mc_lbyl/gen_sim/gen_sim_lbyl/gen_sim_lbyl/190716_093613/0000/LbyL_gen_sim_107.root\n'
p84
aS'/store/group/phys_diffraction/lbyl_2018/mc_lbyl/gen_sim/gen_sim_lbyl/gen_sim_lbyl/190716_093613/0000/LbyL_gen_sim_108.root\n'
p85
aS'/store/group/phys_diffraction/lbyl_2018/mc_lbyl/gen_sim/gen_sim_lbyl/gen_sim_lbyl/190716_093613/0000/LbyL_gen_sim_109.root\n'
p86
aS'/store/group/phys_diffraction/lbyl_2018/mc_lbyl/gen_sim/gen_sim_lbyl/gen_sim_lbyl/190716_093613/0000/LbyL_gen_sim_11.root\n'
p87
aS'/store/group/phys_diffraction/lbyl_2018/mc_lbyl/gen_sim/gen_sim_lbyl/gen_sim_lbyl/190716_093613/0000/LbyL_gen_sim_110.root\n'
p88
aS'/store/group/phys_diffraction/lbyl_2018/mc_lbyl/gen_sim/gen_sim_lbyl/gen_sim_lbyl/190716_093613/0000/LbyL_gen_sim_111.root\n'
p89
aS'/store/group/phys_diffraction/lbyl_2018/mc_lbyl/gen_sim/gen_sim_lbyl/gen_sim_lbyl/190716_093613/0000/LbyL_gen_sim_112.root\n'
p90
aS'/store/group/phys_diffraction/lbyl_2018/mc_lbyl/gen_sim/gen_sim_lbyl/gen_sim_lbyl/190716_093613/0000/LbyL_gen_sim_113.root\n'
p91
aS'/store/group/phys_diffraction/lbyl_2018/mc_lbyl/gen_sim/gen_sim_lbyl/gen_sim_lbyl/190716_093613/0000/LbyL_gen_sim_114.root\n'
p92
aS'/store/group/phys_diffraction/lbyl_2018/mc_lbyl/gen_sim/gen_sim_lbyl/gen_sim_lbyl/190716_093613/0000/LbyL_gen_sim_115.root\n'
p93
aS'/store/group/phys_diffraction/lbyl_2018/mc_lbyl/gen_sim/gen_sim_lbyl/gen_sim_lbyl/190716_093613/0000/LbyL_gen_sim_116.root\n'
p94
aS'/store/group/phys_diffraction/lbyl_2018/mc_lbyl/gen_sim/gen_sim_lbyl/gen_sim_lbyl/190716_093613/0000/LbyL_gen_sim_117.root\n'
p95
aS'/store/group/phys_diffraction/lbyl_2018/mc_lbyl/gen_sim/gen_sim_lbyl/gen_sim_lbyl/190716_093613/0000/LbyL_gen_sim_118.root\n'
p96
aS'/store/group/phys_diffraction/lbyl_2018/mc_lbyl/gen_sim/gen_sim_lbyl/gen_sim_lbyl/190716_093613/0000/LbyL_gen_sim_119.root\n'
p97
aS'/store/group/phys_diffraction/lbyl_2018/mc_lbyl/gen_sim/gen_sim_lbyl/gen_sim_lbyl/190716_093613/0000/LbyL_gen_sim_12.root\n'
p98
aS'/store/group/phys_diffraction/lbyl_2018/mc_lbyl/gen_sim/gen_sim_lbyl/gen_sim_lbyl/190716_093613/0000/LbyL_gen_sim_120.root\n'
p99
aS'/store/group/phys_diffraction/lbyl_2018/mc_lbyl/gen_sim/gen_sim_lbyl/gen_sim_lbyl/190716_093613/0000/LbyL_gen_sim_121.root\n'
p100
aS'/store/group/phys_diffraction/lbyl_2018/mc_lbyl/gen_sim/gen_sim_lbyl/gen_sim_lbyl/190716_093613/0000/LbyL_gen_sim_122.root\n'
p101
aS'/store/group/phys_diffraction/lbyl_2018/mc_lbyl/gen_sim/gen_sim_lbyl/gen_sim_lbyl/190716_093613/0000/LbyL_gen_sim_123.root\n'
p102
aS'/store/group/phys_diffraction/lbyl_2018/mc_lbyl/gen_sim/gen_sim_lbyl/gen_sim_lbyl/190716_093613/0000/LbyL_gen_sim_124.root\n'
p103
aS'/store/group/phys_diffraction/lbyl_2018/mc_lbyl/gen_sim/gen_sim_lbyl/gen_sim_lbyl/190716_093613/0000/LbyL_gen_sim_125.root\n'
p104
aS'/store/group/phys_diffraction/lbyl_2018/mc_lbyl/gen_sim/gen_sim_lbyl/gen_sim_lbyl/190716_093613/0000/LbyL_gen_sim_126.root\n'
p105
aS'/store/group/phys_diffraction/lbyl_2018/mc_lbyl/gen_sim/gen_sim_lbyl/gen_sim_lbyl/190716_093613/0000/LbyL_gen_sim_127.root\n'
p106
aS'/store/group/phys_diffraction/lbyl_2018/mc_lbyl/gen_sim/gen_sim_lbyl/gen_sim_lbyl/190716_093613/0000/LbyL_gen_sim_128.root\n'
p107
aS'/store/group/phys_diffraction/lbyl_2018/mc_lbyl/gen_sim/gen_sim_lbyl/gen_sim_lbyl/190716_093613/0000/LbyL_gen_sim_129.root\n'
p108
aS'/store/group/phys_diffraction/lbyl_2018/mc_lbyl/gen_sim/gen_sim_lbyl/gen_sim_lbyl/190716_093613/0000/LbyL_gen_sim_13.root\n'
p109
aS'/store/group/phys_diffraction/lbyl_2018/mc_lbyl/gen_sim/gen_sim_lbyl/gen_sim_lbyl/190716_093613/0000/LbyL_gen_sim_130.root\n'
p110
aS'/store/group/phys_diffraction/lbyl_2018/mc_lbyl/gen_sim/gen_sim_lbyl/gen_sim_lbyl/190716_093613/0000/LbyL_gen_sim_131.root\n'
p111
aS'/store/group/phys_diffraction/lbyl_2018/mc_lbyl/gen_sim/gen_sim_lbyl/gen_sim_lbyl/190716_093613/0000/LbyL_gen_sim_132.root\n'
p112
aS'/store/group/phys_diffraction/lbyl_2018/mc_lbyl/gen_sim/gen_sim_lbyl/gen_sim_lbyl/190716_093613/0000/LbyL_gen_sim_133.root\n'
p113
aS'/store/group/phys_diffraction/lbyl_2018/mc_lbyl/gen_sim/gen_sim_lbyl/gen_sim_lbyl/190716_093613/0000/LbyL_gen_sim_134.root\n'
p114
aS'/store/group/phys_diffraction/lbyl_2018/mc_lbyl/gen_sim/gen_sim_lbyl/gen_sim_lbyl/190716_093613/0000/LbyL_gen_sim_135.root\n'
p115
aS'/store/group/phys_diffraction/lbyl_2018/mc_lbyl/gen_sim/gen_sim_lbyl/gen_sim_lbyl/190716_093613/0000/LbyL_gen_sim_136.root\n'
p116
aS'/store/group/phys_diffraction/lbyl_2018/mc_lbyl/gen_sim/gen_sim_lbyl/gen_sim_lbyl/190716_093613/0000/LbyL_gen_sim_137.root\n'
p117
aS'/store/group/phys_diffraction/lbyl_2018/mc_lbyl/gen_sim/gen_sim_lbyl/gen_sim_lbyl/190716_093613/0000/LbyL_gen_sim_138.root\n'
p118
aS'/store/group/phys_diffraction/lbyl_2018/mc_lbyl/gen_sim/gen_sim_lbyl/gen_sim_lbyl/190716_093613/0000/LbyL_gen_sim_139.root\n'
p119
aS'/store/group/phys_diffraction/lbyl_2018/mc_lbyl/gen_sim/gen_sim_lbyl/gen_sim_lbyl/190716_093613/0000/LbyL_gen_sim_14.root\n'
p120
aS'/store/group/phys_diffraction/lbyl_2018/mc_lbyl/gen_sim/gen_sim_lbyl/gen_sim_lbyl/190716_093613/0000/LbyL_gen_sim_140.root\n'
p121
aS'/store/group/phys_diffraction/lbyl_2018/mc_lbyl/gen_sim/gen_sim_lbyl/gen_sim_lbyl/190716_093613/0000/LbyL_gen_sim_141.root\n'
p122
aS'/store/group/phys_diffraction/lbyl_2018/mc_lbyl/gen_sim/gen_sim_lbyl/gen_sim_lbyl/190716_093613/0000/LbyL_gen_sim_142.root\n'
p123
aS'/store/group/phys_diffraction/lbyl_2018/mc_lbyl/gen_sim/gen_sim_lbyl/gen_sim_lbyl/190716_093613/0000/LbyL_gen_sim_143.root\n'
p124
aS'/store/group/phys_diffraction/lbyl_2018/mc_lbyl/gen_sim/gen_sim_lbyl/gen_sim_lbyl/190716_093613/0000/LbyL_gen_sim_145.root\n'
p125
aS'/store/group/phys_diffraction/lbyl_2018/mc_lbyl/gen_sim/gen_sim_lbyl/gen_sim_lbyl/190716_093613/0000/LbyL_gen_sim_146.root\n'
p126
aS'/store/group/phys_diffraction/lbyl_2018/mc_lbyl/gen_sim/gen_sim_lbyl/gen_sim_lbyl/190716_093613/0000/LbyL_gen_sim_147.root\n'
p127
aS'/store/group/phys_diffraction/lbyl_2018/mc_lbyl/gen_sim/gen_sim_lbyl/gen_sim_lbyl/190716_093613/0000/LbyL_gen_sim_148.root\n'
p128
aS'/store/group/phys_diffraction/lbyl_2018/mc_lbyl/gen_sim/gen_sim_lbyl/gen_sim_lbyl/190716_093613/0000/LbyL_gen_sim_149.root\n'
p129
aS'/store/group/phys_diffraction/lbyl_2018/mc_lbyl/gen_sim/gen_sim_lbyl/gen_sim_lbyl/190716_093613/0000/LbyL_gen_sim_15.root\n'
p130
aS'/store/group/phys_diffraction/lbyl_2018/mc_lbyl/gen_sim/gen_sim_lbyl/gen_sim_lbyl/190716_093613/0000/LbyL_gen_sim_150.root\n'
p131
aS'/store/group/phys_diffraction/lbyl_2018/mc_lbyl/gen_sim/gen_sim_lbyl/gen_sim_lbyl/190716_093613/0000/LbyL_gen_sim_151.root\n'
p132
aS'/store/group/phys_diffraction/lbyl_2018/mc_lbyl/gen_sim/gen_sim_lbyl/gen_sim_lbyl/190716_093613/0000/LbyL_gen_sim_152.root\n'
p133
aS'/store/group/phys_diffraction/lbyl_2018/mc_lbyl/gen_sim/gen_sim_lbyl/gen_sim_lbyl/190716_093613/0000/LbyL_gen_sim_153.root\n'
p134
aS'/store/group/phys_diffraction/lbyl_2018/mc_lbyl/gen_sim/gen_sim_lbyl/gen_sim_lbyl/190716_093613/0000/LbyL_gen_sim_154.root\n'
p135
aS'/store/group/phys_diffraction/lbyl_2018/mc_lbyl/gen_sim/gen_sim_lbyl/gen_sim_lbyl/190716_093613/0000/LbyL_gen_sim_155.root\n'
p136
aS'/store/group/phys_diffraction/lbyl_2018/mc_lbyl/gen_sim/gen_sim_lbyl/gen_sim_lbyl/190716_093613/0000/LbyL_gen_sim_156.root\n'
p137
aS'/store/group/phys_diffraction/lbyl_2018/mc_lbyl/gen_sim/gen_sim_lbyl/gen_sim_lbyl/190716_093613/0000/LbyL_gen_sim_157.root\n'
p138
aS'/store/group/phys_diffraction/lbyl_2018/mc_lbyl/gen_sim/gen_sim_lbyl/gen_sim_lbyl/190716_093613/0000/LbyL_gen_sim_158.root\n'
p139
aS'/store/group/phys_diffraction/lbyl_2018/mc_lbyl/gen_sim/gen_sim_lbyl/gen_sim_lbyl/190716_093613/0000/LbyL_gen_sim_16.root\n'
p140
aS'/store/group/phys_diffraction/lbyl_2018/mc_lbyl/gen_sim/gen_sim_lbyl/gen_sim_lbyl/190716_093613/0000/LbyL_gen_sim_162.root\n'
p141
aS'/store/group/phys_diffraction/lbyl_2018/mc_lbyl/gen_sim/gen_sim_lbyl/gen_sim_lbyl/190716_093613/0000/LbyL_gen_sim_163.root\n'
p142
aS'/store/group/phys_diffraction/lbyl_2018/mc_lbyl/gen_sim/gen_sim_lbyl/gen_sim_lbyl/190716_093613/0000/LbyL_gen_sim_165.root\n'
p143
aS'/store/group/phys_diffraction/lbyl_2018/mc_lbyl/gen_sim/gen_sim_lbyl/gen_sim_lbyl/190716_093613/0000/LbyL_gen_sim_166.root\n'
p144
aS'/store/group/phys_diffraction/lbyl_2018/mc_lbyl/gen_sim/gen_sim_lbyl/gen_sim_lbyl/190716_093613/0000/LbyL_gen_sim_167.root\n'
p145
aS'/store/group/phys_diffraction/lbyl_2018/mc_lbyl/gen_sim/gen_sim_lbyl/gen_sim_lbyl/190716_093613/0000/LbyL_gen_sim_168.root\n'
p146
aS'/store/group/phys_diffraction/lbyl_2018/mc_lbyl/gen_sim/gen_sim_lbyl/gen_sim_lbyl/190716_093613/0000/LbyL_gen_sim_169.root\n'
p147
aS'/store/group/phys_diffraction/lbyl_2018/mc_lbyl/gen_sim/gen_sim_lbyl/gen_sim_lbyl/190716_093613/0000/LbyL_gen_sim_17.root\n'
p148
aS'/store/group/phys_diffraction/lbyl_2018/mc_lbyl/gen_sim/gen_sim_lbyl/gen_sim_lbyl/190716_093613/0000/LbyL_gen_sim_170.root\n'
p149
aS'/store/group/phys_diffraction/lbyl_2018/mc_lbyl/gen_sim/gen_sim_lbyl/gen_sim_lbyl/190716_093613/0000/LbyL_gen_sim_172.root\n'
p150
aS'/store/group/phys_diffraction/lbyl_2018/mc_lbyl/gen_sim/gen_sim_lbyl/gen_sim_lbyl/190716_093613/0000/LbyL_gen_sim_173.root\n'
p151
aS'/store/group/phys_diffraction/lbyl_2018/mc_lbyl/gen_sim/gen_sim_lbyl/gen_sim_lbyl/190716_093613/0000/LbyL_gen_sim_175.root\n'
p152
aS'/store/group/phys_diffraction/lbyl_2018/mc_lbyl/gen_sim/gen_sim_lbyl/gen_sim_lbyl/190716_093613/0000/LbyL_gen_sim_176.root\n'
p153
aS'/store/group/phys_diffraction/lbyl_2018/mc_lbyl/gen_sim/gen_sim_lbyl/gen_sim_lbyl/190716_093613/0000/LbyL_gen_sim_178.root\n'
p154
aS'/store/group/phys_diffraction/lbyl_2018/mc_lbyl/gen_sim/gen_sim_lbyl/gen_sim_lbyl/190716_093613/0000/LbyL_gen_sim_18.root\n'
p155
aS'/store/group/phys_diffraction/lbyl_2018/mc_lbyl/gen_sim/gen_sim_lbyl/gen_sim_lbyl/190716_093613/0000/LbyL_gen_sim_180.root\n'
p156
aS'/store/group/phys_diffraction/lbyl_2018/mc_lbyl/gen_sim/gen_sim_lbyl/gen_sim_lbyl/190716_093613/0000/LbyL_gen_sim_182.root\n'
p157
aS'/store/group/phys_diffraction/lbyl_2018/mc_lbyl/gen_sim/gen_sim_lbyl/gen_sim_lbyl/190716_093613/0000/LbyL_gen_sim_184.root\n'
p158
aS'/store/group/phys_diffraction/lbyl_2018/mc_lbyl/gen_sim/gen_sim_lbyl/gen_sim_lbyl/190716_093613/0000/LbyL_gen_sim_185.root\n'
p159
aS'/store/group/phys_diffraction/lbyl_2018/mc_lbyl/gen_sim/gen_sim_lbyl/gen_sim_lbyl/190716_093613/0000/LbyL_gen_sim_186.root\n'
p160
aS'/store/group/phys_diffraction/lbyl_2018/mc_lbyl/gen_sim/gen_sim_lbyl/gen_sim_lbyl/190716_093613/0000/LbyL_gen_sim_189.root\n'
p161
aS'/store/group/phys_diffraction/lbyl_2018/mc_lbyl/gen_sim/gen_sim_lbyl/gen_sim_lbyl/190716_093613/0000/LbyL_gen_sim_19.root\n'
p162
aS'/store/group/phys_diffraction/lbyl_2018/mc_lbyl/gen_sim/gen_sim_lbyl/gen_sim_lbyl/190716_093613/0000/LbyL_gen_sim_190.root\n'
p163
aS'/store/group/phys_diffraction/lbyl_2018/mc_lbyl/gen_sim/gen_sim_lbyl/gen_sim_lbyl/190716_093613/0000/LbyL_gen_sim_193.root\n'
p164
aS'/store/group/phys_diffraction/lbyl_2018/mc_lbyl/gen_sim/gen_sim_lbyl/gen_sim_lbyl/190716_093613/0000/LbyL_gen_sim_194.root\n'
p165
aS'/store/group/phys_diffraction/lbyl_2018/mc_lbyl/gen_sim/gen_sim_lbyl/gen_sim_lbyl/190716_093613/0000/LbyL_gen_sim_195.root\n'
p166
aS'/store/group/phys_diffraction/lbyl_2018/mc_lbyl/gen_sim/gen_sim_lbyl/gen_sim_lbyl/190716_093613/0000/LbyL_gen_sim_197.root\n'
p167
aS'/store/group/phys_diffraction/lbyl_2018/mc_lbyl/gen_sim/gen_sim_lbyl/gen_sim_lbyl/190716_093613/0000/LbyL_gen_sim_198.root\n'
p168
aS'/store/group/phys_diffraction/lbyl_2018/mc_lbyl/gen_sim/gen_sim_lbyl/gen_sim_lbyl/190716_093613/0000/LbyL_gen_sim_199.root\n'
p169
aS'/store/group/phys_diffraction/lbyl_2018/mc_lbyl/gen_sim/gen_sim_lbyl/gen_sim_lbyl/190716_093613/0000/LbyL_gen_sim_20.root\n'
p170
aS'/store/group/phys_diffraction/lbyl_2018/mc_lbyl/gen_sim/gen_sim_lbyl/gen_sim_lbyl/190716_093613/0000/LbyL_gen_sim_200.root\n'
p171
aS'/store/group/phys_diffraction/lbyl_2018/mc_lbyl/gen_sim/gen_sim_lbyl/gen_sim_lbyl/190716_093613/0000/LbyL_gen_sim_201.root\n'
p172
aS'/store/group/phys_diffraction/lbyl_2018/mc_lbyl/gen_sim/gen_sim_lbyl/gen_sim_lbyl/190716_093613/0000/LbyL_gen_sim_202.root\n'
p173
aS'/store/group/phys_diffraction/lbyl_2018/mc_lbyl/gen_sim/gen_sim_lbyl/gen_sim_lbyl/190716_093613/0000/LbyL_gen_sim_203.root\n'
p174
aS'/store/group/phys_diffraction/lbyl_2018/mc_lbyl/gen_sim/gen_sim_lbyl/gen_sim_lbyl/190716_093613/0000/LbyL_gen_sim_204.root\n'
p175
aS'/store/group/phys_diffraction/lbyl_2018/mc_lbyl/gen_sim/gen_sim_lbyl/gen_sim_lbyl/190716_093613/0000/LbyL_gen_sim_205.root\n'
p176
aS'/store/group/phys_diffraction/lbyl_2018/mc_lbyl/gen_sim/gen_sim_lbyl/gen_sim_lbyl/190716_093613/0000/LbyL_gen_sim_208.root\n'
p177
aS'/store/group/phys_diffraction/lbyl_2018/mc_lbyl/gen_sim/gen_sim_lbyl/gen_sim_lbyl/190716_093613/0000/LbyL_gen_sim_21.root\n'
p178
aS'/store/group/phys_diffraction/lbyl_2018/mc_lbyl/gen_sim/gen_sim_lbyl/gen_sim_lbyl/190716_093613/0000/LbyL_gen_sim_210.root\n'
p179
aS'/store/group/phys_diffraction/lbyl_2018/mc_lbyl/gen_sim/gen_sim_lbyl/gen_sim_lbyl/190716_093613/0000/LbyL_gen_sim_211.root\n'
p180
aS'/store/group/phys_diffraction/lbyl_2018/mc_lbyl/gen_sim/gen_sim_lbyl/gen_sim_lbyl/190716_093613/0000/LbyL_gen_sim_212.root\n'
p181
aS'/store/group/phys_diffraction/lbyl_2018/mc_lbyl/gen_sim/gen_sim_lbyl/gen_sim_lbyl/190716_093613/0000/LbyL_gen_sim_213.root\n'
p182
aS'/store/group/phys_diffraction/lbyl_2018/mc_lbyl/gen_sim/gen_sim_lbyl/gen_sim_lbyl/190716_093613/0000/LbyL_gen_sim_214.root\n'
p183
aS'/store/group/phys_diffraction/lbyl_2018/mc_lbyl/gen_sim/gen_sim_lbyl/gen_sim_lbyl/190716_093613/0000/LbyL_gen_sim_215.root\n'
p184
aS'/store/group/phys_diffraction/lbyl_2018/mc_lbyl/gen_sim/gen_sim_lbyl/gen_sim_lbyl/190716_093613/0000/LbyL_gen_sim_216.root\n'
p185
aS'/store/group/phys_diffraction/lbyl_2018/mc_lbyl/gen_sim/gen_sim_lbyl/gen_sim_lbyl/190716_093613/0000/LbyL_gen_sim_217.root\n'
p186
aS'/store/group/phys_diffraction/lbyl_2018/mc_lbyl/gen_sim/gen_sim_lbyl/gen_sim_lbyl/190716_093613/0000/LbyL_gen_sim_218.root\n'
p187
aS'/store/group/phys_diffraction/lbyl_2018/mc_lbyl/gen_sim/gen_sim_lbyl/gen_sim_lbyl/190716_093613/0000/LbyL_gen_sim_219.root\n'
p188
aS'/store/group/phys_diffraction/lbyl_2018/mc_lbyl/gen_sim/gen_sim_lbyl/gen_sim_lbyl/190716_093613/0000/LbyL_gen_sim_22.root\n'
p189
aS'/store/group/phys_diffraction/lbyl_2018/mc_lbyl/gen_sim/gen_sim_lbyl/gen_sim_lbyl/190716_093613/0000/LbyL_gen_sim_220.root\n'
p190
aS'/store/group/phys_diffraction/lbyl_2018/mc_lbyl/gen_sim/gen_sim_lbyl/gen_sim_lbyl/190716_093613/0000/LbyL_gen_sim_221.root\n'
p191
aS'/store/group/phys_diffraction/lbyl_2018/mc_lbyl/gen_sim/gen_sim_lbyl/gen_sim_lbyl/190716_093613/0000/LbyL_gen_sim_222.root\n'
p192
aS'/store/group/phys_diffraction/lbyl_2018/mc_lbyl/gen_sim/gen_sim_lbyl/gen_sim_lbyl/190716_093613/0000/LbyL_gen_sim_223.root\n'
p193
aS'/store/group/phys_diffraction/lbyl_2018/mc_lbyl/gen_sim/gen_sim_lbyl/gen_sim_lbyl/190716_093613/0000/LbyL_gen_sim_224.root\n'
p194
aS'/store/group/phys_diffraction/lbyl_2018/mc_lbyl/gen_sim/gen_sim_lbyl/gen_sim_lbyl/190716_093613/0000/LbyL_gen_sim_225.root\n'
p195
aS'/store/group/phys_diffraction/lbyl_2018/mc_lbyl/gen_sim/gen_sim_lbyl/gen_sim_lbyl/190716_093613/0000/LbyL_gen_sim_23.root\n'
p196
aS'/store/group/phys_diffraction/lbyl_2018/mc_lbyl/gen_sim/gen_sim_lbyl/gen_sim_lbyl/190716_093613/0000/LbyL_gen_sim_232.root\n'
p197
aS'/store/group/phys_diffraction/lbyl_2018/mc_lbyl/gen_sim/gen_sim_lbyl/gen_sim_lbyl/190716_093613/0000/LbyL_gen_sim_233.root\n'
p198
aS'/store/group/phys_diffraction/lbyl_2018/mc_lbyl/gen_sim/gen_sim_lbyl/gen_sim_lbyl/190716_093613/0000/LbyL_gen_sim_234.root\n'
p199
aS'/store/group/phys_diffraction/lbyl_2018/mc_lbyl/gen_sim/gen_sim_lbyl/gen_sim_lbyl/190716_093613/0000/LbyL_gen_sim_236.root\n'
p200
aS'/store/group/phys_diffraction/lbyl_2018/mc_lbyl/gen_sim/gen_sim_lbyl/gen_sim_lbyl/190716_093613/0000/LbyL_gen_sim_237.root\n'
p201
aS'/store/group/phys_diffraction/lbyl_2018/mc_lbyl/gen_sim/gen_sim_lbyl/gen_sim_lbyl/190716_093613/0000/LbyL_gen_sim_238.root\n'
p202
aS'/store/group/phys_diffraction/lbyl_2018/mc_lbyl/gen_sim/gen_sim_lbyl/gen_sim_lbyl/190716_093613/0000/LbyL_gen_sim_239.root\n'
p203
aS'/store/group/phys_diffraction/lbyl_2018/mc_lbyl/gen_sim/gen_sim_lbyl/gen_sim_lbyl/190716_093613/0000/LbyL_gen_sim_24.root\n'
p204
aS'/store/group/phys_diffraction/lbyl_2018/mc_lbyl/gen_sim/gen_sim_lbyl/gen_sim_lbyl/190716_093613/0000/LbyL_gen_sim_240.root\n'
p205
aS'/store/group/phys_diffraction/lbyl_2018/mc_lbyl/gen_sim/gen_sim_lbyl/gen_sim_lbyl/190716_093613/0000/LbyL_gen_sim_241.root\n'
p206
aS'/store/group/phys_diffraction/lbyl_2018/mc_lbyl/gen_sim/gen_sim_lbyl/gen_sim_lbyl/190716_093613/0000/LbyL_gen_sim_242.root\n'
p207
aS'/store/group/phys_diffraction/lbyl_2018/mc_lbyl/gen_sim/gen_sim_lbyl/gen_sim_lbyl/190716_093613/0000/LbyL_gen_sim_243.root\n'
p208
aS'/store/group/phys_diffraction/lbyl_2018/mc_lbyl/gen_sim/gen_sim_lbyl/gen_sim_lbyl/190716_093613/0000/LbyL_gen_sim_245.root\n'
p209
aS'/store/group/phys_diffraction/lbyl_2018/mc_lbyl/gen_sim/gen_sim_lbyl/gen_sim_lbyl/190716_093613/0000/LbyL_gen_sim_246.root\n'
p210
aS'/store/group/phys_diffraction/lbyl_2018/mc_lbyl/gen_sim/gen_sim_lbyl/gen_sim_lbyl/190716_093613/0000/LbyL_gen_sim_25.root\n'
p211
aS'/store/group/phys_diffraction/lbyl_2018/mc_lbyl/gen_sim/gen_sim_lbyl/gen_sim_lbyl/190716_093613/0000/LbyL_gen_sim_250.root\n'
p212
aS'/store/group/phys_diffraction/lbyl_2018/mc_lbyl/gen_sim/gen_sim_lbyl/gen_sim_lbyl/190716_093613/0000/LbyL_gen_sim_251.root\n'
p213
aS'/store/group/phys_diffraction/lbyl_2018/mc_lbyl/gen_sim/gen_sim_lbyl/gen_sim_lbyl/190716_093613/0000/LbyL_gen_sim_252.root\n'
p214
aS'/store/group/phys_diffraction/lbyl_2018/mc_lbyl/gen_sim/gen_sim_lbyl/gen_sim_lbyl/190716_093613/0000/LbyL_gen_sim_254.root\n'
p215
aS'/store/group/phys_diffraction/lbyl_2018/mc_lbyl/gen_sim/gen_sim_lbyl/gen_sim_lbyl/190716_093613/0000/LbyL_gen_sim_255.root\n'
p216
aS'/store/group/phys_diffraction/lbyl_2018/mc_lbyl/gen_sim/gen_sim_lbyl/gen_sim_lbyl/190716_093613/0000/LbyL_gen_sim_256.root\n'
p217
aS'/store/group/phys_diffraction/lbyl_2018/mc_lbyl/gen_sim/gen_sim_lbyl/gen_sim_lbyl/190716_093613/0000/LbyL_gen_sim_257.root\n'
p218
aS'/store/group/phys_diffraction/lbyl_2018/mc_lbyl/gen_sim/gen_sim_lbyl/gen_sim_lbyl/190716_093613/0000/LbyL_gen_sim_258.root\n'
p219
aS'/store/group/phys_diffraction/lbyl_2018/mc_lbyl/gen_sim/gen_sim_lbyl/gen_sim_lbyl/190716_093613/0000/LbyL_gen_sim_259.root\n'
p220
aS'/store/group/phys_diffraction/lbyl_2018/mc_lbyl/gen_sim/gen_sim_lbyl/gen_sim_lbyl/190716_093613/0000/LbyL_gen_sim_26.root\n'
p221
aS'/store/group/phys_diffraction/lbyl_2018/mc_lbyl/gen_sim/gen_sim_lbyl/gen_sim_lbyl/190716_093613/0000/LbyL_gen_sim_260.root\n'
p222
aS'/store/group/phys_diffraction/lbyl_2018/mc_lbyl/gen_sim/gen_sim_lbyl/gen_sim_lbyl/190716_093613/0000/LbyL_gen_sim_264.root\n'
p223
aS'/store/group/phys_diffraction/lbyl_2018/mc_lbyl/gen_sim/gen_sim_lbyl/gen_sim_lbyl/190716_093613/0000/LbyL_gen_sim_266.root\n'
p224
aS'/store/group/phys_diffraction/lbyl_2018/mc_lbyl/gen_sim/gen_sim_lbyl/gen_sim_lbyl/190716_093613/0000/LbyL_gen_sim_267.root\n'
p225
aS'/store/group/phys_diffraction/lbyl_2018/mc_lbyl/gen_sim/gen_sim_lbyl/gen_sim_lbyl/190716_093613/0000/LbyL_gen_sim_268.root\n'
p226
aS'/store/group/phys_diffraction/lbyl_2018/mc_lbyl/gen_sim/gen_sim_lbyl/gen_sim_lbyl/190716_093613/0000/LbyL_gen_sim_269.root\n'
p227
aS'/store/group/phys_diffraction/lbyl_2018/mc_lbyl/gen_sim/gen_sim_lbyl/gen_sim_lbyl/190716_093613/0000/LbyL_gen_sim_27.root\n'
p228
aS'/store/group/phys_diffraction/lbyl_2018/mc_lbyl/gen_sim/gen_sim_lbyl/gen_sim_lbyl/190716_093613/0000/LbyL_gen_sim_270.root\n'
p229
aS'/store/group/phys_diffraction/lbyl_2018/mc_lbyl/gen_sim/gen_sim_lbyl/gen_sim_lbyl/190716_093613/0000/LbyL_gen_sim_271.root\n'
p230
aS'/store/group/phys_diffraction/lbyl_2018/mc_lbyl/gen_sim/gen_sim_lbyl/gen_sim_lbyl/190716_093613/0000/LbyL_gen_sim_273.root\n'
p231
aS'/store/group/phys_diffraction/lbyl_2018/mc_lbyl/gen_sim/gen_sim_lbyl/gen_sim_lbyl/190716_093613/0000/LbyL_gen_sim_274.root\n'
p232
aS'/store/group/phys_diffraction/lbyl_2018/mc_lbyl/gen_sim/gen_sim_lbyl/gen_sim_lbyl/190716_093613/0000/LbyL_gen_sim_277.root\n'
p233
aS'/store/group/phys_diffraction/lbyl_2018/mc_lbyl/gen_sim/gen_sim_lbyl/gen_sim_lbyl/190716_093613/0000/LbyL_gen_sim_28.root\n'
p234
aS'/store/group/phys_diffraction/lbyl_2018/mc_lbyl/gen_sim/gen_sim_lbyl/gen_sim_lbyl/190716_093613/0000/LbyL_gen_sim_281.root\n'
p235
aS'/store/group/phys_diffraction/lbyl_2018/mc_lbyl/gen_sim/gen_sim_lbyl/gen_sim_lbyl/190716_093613/0000/LbyL_gen_sim_283.root\n'
p236
aS'/store/group/phys_diffraction/lbyl_2018/mc_lbyl/gen_sim/gen_sim_lbyl/gen_sim_lbyl/190716_093613/0000/LbyL_gen_sim_284.root\n'
p237
aS'/store/group/phys_diffraction/lbyl_2018/mc_lbyl/gen_sim/gen_sim_lbyl/gen_sim_lbyl/190716_093613/0000/LbyL_gen_sim_286.root\n'
p238
aS'/store/group/phys_diffraction/lbyl_2018/mc_lbyl/gen_sim/gen_sim_lbyl/gen_sim_lbyl/190716_093613/0000/LbyL_gen_sim_287.root\n'
p239
aS'/store/group/phys_diffraction/lbyl_2018/mc_lbyl/gen_sim/gen_sim_lbyl/gen_sim_lbyl/190716_093613/0000/LbyL_gen_sim_288.root\n'
p240
aS'/store/group/phys_diffraction/lbyl_2018/mc_lbyl/gen_sim/gen_sim_lbyl/gen_sim_lbyl/190716_093613/0000/LbyL_gen_sim_29.root\n'
p241
aS'/store/group/phys_diffraction/lbyl_2018/mc_lbyl/gen_sim/gen_sim_lbyl/gen_sim_lbyl/190716_093613/0000/LbyL_gen_sim_290.root\n'
p242
aS'/store/group/phys_diffraction/lbyl_2018/mc_lbyl/gen_sim/gen_sim_lbyl/gen_sim_lbyl/190716_093613/0000/LbyL_gen_sim_291.root\n'
p243
aS'/store/group/phys_diffraction/lbyl_2018/mc_lbyl/gen_sim/gen_sim_lbyl/gen_sim_lbyl/190716_093613/0000/LbyL_gen_sim_293.root\n'
p244
aS'/store/group/phys_diffraction/lbyl_2018/mc_lbyl/gen_sim/gen_sim_lbyl/gen_sim_lbyl/190716_093613/0000/LbyL_gen_sim_295.root\n'
p245
aS'/store/group/phys_diffraction/lbyl_2018/mc_lbyl/gen_sim/gen_sim_lbyl/gen_sim_lbyl/190716_093613/0000/LbyL_gen_sim_296.root\n'
p246
aS'/store/group/phys_diffraction/lbyl_2018/mc_lbyl/gen_sim/gen_sim_lbyl/gen_sim_lbyl/190716_093613/0000/LbyL_gen_sim_297.root\n'
p247
aS'/store/group/phys_diffraction/lbyl_2018/mc_lbyl/gen_sim/gen_sim_lbyl/gen_sim_lbyl/190716_093613/0000/LbyL_gen_sim_298.root\n'
p248
aS'/store/group/phys_diffraction/lbyl_2018/mc_lbyl/gen_sim/gen_sim_lbyl/gen_sim_lbyl/190716_093613/0000/LbyL_gen_sim_299.root\n'
p249
aS'/store/group/phys_diffraction/lbyl_2018/mc_lbyl/gen_sim/gen_sim_lbyl/gen_sim_lbyl/190716_093613/0000/LbyL_gen_sim_3.root\n'
p250
aS'/store/group/phys_diffraction/lbyl_2018/mc_lbyl/gen_sim/gen_sim_lbyl/gen_sim_lbyl/190716_093613/0000/LbyL_gen_sim_30.root\n'
p251
aS'/store/group/phys_diffraction/lbyl_2018/mc_lbyl/gen_sim/gen_sim_lbyl/gen_sim_lbyl/190716_093613/0000/LbyL_gen_sim_300.root\n'
p252
aS'/store/group/phys_diffraction/lbyl_2018/mc_lbyl/gen_sim/gen_sim_lbyl/gen_sim_lbyl/190716_093613/0000/LbyL_gen_sim_301.root\n'
p253
aS'/store/group/phys_diffraction/lbyl_2018/mc_lbyl/gen_sim/gen_sim_lbyl/gen_sim_lbyl/190716_093613/0000/LbyL_gen_sim_304.root\n'
p254
aS'/store/group/phys_diffraction/lbyl_2018/mc_lbyl/gen_sim/gen_sim_lbyl/gen_sim_lbyl/190716_093613/0000/LbyL_gen_sim_305.root\n'
p255
aS'/store/group/phys_diffraction/lbyl_2018/mc_lbyl/gen_sim/gen_sim_lbyl/gen_sim_lbyl/190716_093613/0000/LbyL_gen_sim_306.root\n'
p256
aS'/store/group/phys_diffraction/lbyl_2018/mc_lbyl/gen_sim/gen_sim_lbyl/gen_sim_lbyl/190716_093613/0000/LbyL_gen_sim_309.root\n'
p257
aS'/store/group/phys_diffraction/lbyl_2018/mc_lbyl/gen_sim/gen_sim_lbyl/gen_sim_lbyl/190716_093613/0000/LbyL_gen_sim_31.root\n'
p258
aS'/store/group/phys_diffraction/lbyl_2018/mc_lbyl/gen_sim/gen_sim_lbyl/gen_sim_lbyl/190716_093613/0000/LbyL_gen_sim_311.root\n'
p259
aS'/store/group/phys_diffraction/lbyl_2018/mc_lbyl/gen_sim/gen_sim_lbyl/gen_sim_lbyl/190716_093613/0000/LbyL_gen_sim_313.root\n'
p260
aS'/store/group/phys_diffraction/lbyl_2018/mc_lbyl/gen_sim/gen_sim_lbyl/gen_sim_lbyl/190716_093613/0000/LbyL_gen_sim_314.root\n'
p261
aS'/store/group/phys_diffraction/lbyl_2018/mc_lbyl/gen_sim/gen_sim_lbyl/gen_sim_lbyl/190716_093613/0000/LbyL_gen_sim_315.root\n'
p262
aS'/store/group/phys_diffraction/lbyl_2018/mc_lbyl/gen_sim/gen_sim_lbyl/gen_sim_lbyl/190716_093613/0000/LbyL_gen_sim_316.root\n'
p263
aS'/store/group/phys_diffraction/lbyl_2018/mc_lbyl/gen_sim/gen_sim_lbyl/gen_sim_lbyl/190716_093613/0000/LbyL_gen_sim_317.root\n'
p264
aS'/store/group/phys_diffraction/lbyl_2018/mc_lbyl/gen_sim/gen_sim_lbyl/gen_sim_lbyl/190716_093613/0000/LbyL_gen_sim_318.root\n'
p265
aS'/store/group/phys_diffraction/lbyl_2018/mc_lbyl/gen_sim/gen_sim_lbyl/gen_sim_lbyl/190716_093613/0000/LbyL_gen_sim_319.root\n'
p266
aS'/store/group/phys_diffraction/lbyl_2018/mc_lbyl/gen_sim/gen_sim_lbyl/gen_sim_lbyl/190716_093613/0000/LbyL_gen_sim_32.root\n'
p267
aS'/store/group/phys_diffraction/lbyl_2018/mc_lbyl/gen_sim/gen_sim_lbyl/gen_sim_lbyl/190716_093613/0000/LbyL_gen_sim_322.root\n'
p268
aS'/store/group/phys_diffraction/lbyl_2018/mc_lbyl/gen_sim/gen_sim_lbyl/gen_sim_lbyl/190716_093613/0000/LbyL_gen_sim_323.root\n'
p269
aS'/store/group/phys_diffraction/lbyl_2018/mc_lbyl/gen_sim/gen_sim_lbyl/gen_sim_lbyl/190716_093613/0000/LbyL_gen_sim_324.root\n'
p270
aS'/store/group/phys_diffraction/lbyl_2018/mc_lbyl/gen_sim/gen_sim_lbyl/gen_sim_lbyl/190716_093613/0000/LbyL_gen_sim_33.root\n'
p271
aS'/store/group/phys_diffraction/lbyl_2018/mc_lbyl/gen_sim/gen_sim_lbyl/gen_sim_lbyl/190716_093613/0000/LbyL_gen_sim_332.root\n'
p272
aS'/store/group/phys_diffraction/lbyl_2018/mc_lbyl/gen_sim/gen_sim_lbyl/gen_sim_lbyl/190716_093613/0000/LbyL_gen_sim_333.root\n'
p273
aS'/store/group/phys_diffraction/lbyl_2018/mc_lbyl/gen_sim/gen_sim_lbyl/gen_sim_lbyl/190716_093613/0000/LbyL_gen_sim_335.root\n'
p274
aS'/store/group/phys_diffraction/lbyl_2018/mc_lbyl/gen_sim/gen_sim_lbyl/gen_sim_lbyl/190716_093613/0000/LbyL_gen_sim_336.root\n'
p275
aS'/store/group/phys_diffraction/lbyl_2018/mc_lbyl/gen_sim/gen_sim_lbyl/gen_sim_lbyl/190716_093613/0000/LbyL_gen_sim_337.root\n'
p276
aS'/store/group/phys_diffraction/lbyl_2018/mc_lbyl/gen_sim/gen_sim_lbyl/gen_sim_lbyl/190716_093613/0000/LbyL_gen_sim_34.root\n'
p277
aS'/store/group/phys_diffraction/lbyl_2018/mc_lbyl/gen_sim/gen_sim_lbyl/gen_sim_lbyl/190716_093613/0000/LbyL_gen_sim_340.root\n'
p278
aS'/store/group/phys_diffraction/lbyl_2018/mc_lbyl/gen_sim/gen_sim_lbyl/gen_sim_lbyl/190716_093613/0000/LbyL_gen_sim_341.root\n'
p279
aS'/store/group/phys_diffraction/lbyl_2018/mc_lbyl/gen_sim/gen_sim_lbyl/gen_sim_lbyl/190716_093613/0000/LbyL_gen_sim_343.root\n'
p280
aS'/store/group/phys_diffraction/lbyl_2018/mc_lbyl/gen_sim/gen_sim_lbyl/gen_sim_lbyl/190716_093613/0000/LbyL_gen_sim_344.root\n'
p281
aS'/store/group/phys_diffraction/lbyl_2018/mc_lbyl/gen_sim/gen_sim_lbyl/gen_sim_lbyl/190716_093613/0000/LbyL_gen_sim_345.root\n'
p282
aS'/store/group/phys_diffraction/lbyl_2018/mc_lbyl/gen_sim/gen_sim_lbyl/gen_sim_lbyl/190716_093613/0000/LbyL_gen_sim_346.root\n'
p283
aS'/store/group/phys_diffraction/lbyl_2018/mc_lbyl/gen_sim/gen_sim_lbyl/gen_sim_lbyl/190716_093613/0000/LbyL_gen_sim_347.root\n'
p284
aS'/store/group/phys_diffraction/lbyl_2018/mc_lbyl/gen_sim/gen_sim_lbyl/gen_sim_lbyl/190716_093613/0000/LbyL_gen_sim_348.root\n'
p285
aS'/store/group/phys_diffraction/lbyl_2018/mc_lbyl/gen_sim/gen_sim_lbyl/gen_sim_lbyl/190716_093613/0000/LbyL_gen_sim_35.root\n'
p286
aS'/store/group/phys_diffraction/lbyl_2018/mc_lbyl/gen_sim/gen_sim_lbyl/gen_sim_lbyl/190716_093613/0000/LbyL_gen_sim_350.root\n'
p287
aS'/store/group/phys_diffraction/lbyl_2018/mc_lbyl/gen_sim/gen_sim_lbyl/gen_sim_lbyl/190716_093613/0000/LbyL_gen_sim_354.root\n'
p288
aS'/store/group/phys_diffraction/lbyl_2018/mc_lbyl/gen_sim/gen_sim_lbyl/gen_sim_lbyl/190716_093613/0000/LbyL_gen_sim_356.root\n'
p289
aS'/store/group/phys_diffraction/lbyl_2018/mc_lbyl/gen_sim/gen_sim_lbyl/gen_sim_lbyl/190716_093613/0000/LbyL_gen_sim_357.root\n'
p290
aS'/store/group/phys_diffraction/lbyl_2018/mc_lbyl/gen_sim/gen_sim_lbyl/gen_sim_lbyl/190716_093613/0000/LbyL_gen_sim_358.root\n'
p291
aS'/store/group/phys_diffraction/lbyl_2018/mc_lbyl/gen_sim/gen_sim_lbyl/gen_sim_lbyl/190716_093613/0000/LbyL_gen_sim_36.root\n'
p292
aS'/store/group/phys_diffraction/lbyl_2018/mc_lbyl/gen_sim/gen_sim_lbyl/gen_sim_lbyl/190716_093613/0000/LbyL_gen_sim_360.root\n'
p293
aS'/store/group/phys_diffraction/lbyl_2018/mc_lbyl/gen_sim/gen_sim_lbyl/gen_sim_lbyl/190716_093613/0000/LbyL_gen_sim_362.root\n'
p294
aS'/store/group/phys_diffraction/lbyl_2018/mc_lbyl/gen_sim/gen_sim_lbyl/gen_sim_lbyl/190716_093613/0000/LbyL_gen_sim_364.root\n'
p295
aS'/store/group/phys_diffraction/lbyl_2018/mc_lbyl/gen_sim/gen_sim_lbyl/gen_sim_lbyl/190716_093613/0000/LbyL_gen_sim_365.root\n'
p296
aS'/store/group/phys_diffraction/lbyl_2018/mc_lbyl/gen_sim/gen_sim_lbyl/gen_sim_lbyl/190716_093613/0000/LbyL_gen_sim_366.root\n'
p297
aS'/store/group/phys_diffraction/lbyl_2018/mc_lbyl/gen_sim/gen_sim_lbyl/gen_sim_lbyl/190716_093613/0000/LbyL_gen_sim_367.root\n'
p298
aS'/store/group/phys_diffraction/lbyl_2018/mc_lbyl/gen_sim/gen_sim_lbyl/gen_sim_lbyl/190716_093613/0000/LbyL_gen_sim_368.root\n'
p299
aS'/store/group/phys_diffraction/lbyl_2018/mc_lbyl/gen_sim/gen_sim_lbyl/gen_sim_lbyl/190716_093613/0000/LbyL_gen_sim_37.root\n'
p300
aS'/store/group/phys_diffraction/lbyl_2018/mc_lbyl/gen_sim/gen_sim_lbyl/gen_sim_lbyl/190716_093613/0000/LbyL_gen_sim_372.root\n'
p301
aS'/store/group/phys_diffraction/lbyl_2018/mc_lbyl/gen_sim/gen_sim_lbyl/gen_sim_lbyl/190716_093613/0000/LbyL_gen_sim_373.root\n'
p302
aS'/store/group/phys_diffraction/lbyl_2018/mc_lbyl/gen_sim/gen_sim_lbyl/gen_sim_lbyl/190716_093613/0000/LbyL_gen_sim_374.root\n'
p303
aS'/store/group/phys_diffraction/lbyl_2018/mc_lbyl/gen_sim/gen_sim_lbyl/gen_sim_lbyl/190716_093613/0000/LbyL_gen_sim_377.root\n'
p304
aS'/store/group/phys_diffraction/lbyl_2018/mc_lbyl/gen_sim/gen_sim_lbyl/gen_sim_lbyl/190716_093613/0000/LbyL_gen_sim_378.root\n'
p305
aS'/store/group/phys_diffraction/lbyl_2018/mc_lbyl/gen_sim/gen_sim_lbyl/gen_sim_lbyl/190716_093613/0000/LbyL_gen_sim_379.root\n'
p306
aS'/store/group/phys_diffraction/lbyl_2018/mc_lbyl/gen_sim/gen_sim_lbyl/gen_sim_lbyl/190716_093613/0000/LbyL_gen_sim_38.root\n'
p307
aS'/store/group/phys_diffraction/lbyl_2018/mc_lbyl/gen_sim/gen_sim_lbyl/gen_sim_lbyl/190716_093613/0000/LbyL_gen_sim_380.root\n'
p308
aS'/store/group/phys_diffraction/lbyl_2018/mc_lbyl/gen_sim/gen_sim_lbyl/gen_sim_lbyl/190716_093613/0000/LbyL_gen_sim_381.root\n'
p309
aS'/store/group/phys_diffraction/lbyl_2018/mc_lbyl/gen_sim/gen_sim_lbyl/gen_sim_lbyl/190716_093613/0000/LbyL_gen_sim_382.root\n'
p310
aS'/store/group/phys_diffraction/lbyl_2018/mc_lbyl/gen_sim/gen_sim_lbyl/gen_sim_lbyl/190716_093613/0000/LbyL_gen_sim_384.root\n'
p311
aS'/store/group/phys_diffraction/lbyl_2018/mc_lbyl/gen_sim/gen_sim_lbyl/gen_sim_lbyl/190716_093613/0000/LbyL_gen_sim_385.root\n'
p312
aS'/store/group/phys_diffraction/lbyl_2018/mc_lbyl/gen_sim/gen_sim_lbyl/gen_sim_lbyl/190716_093613/0000/LbyL_gen_sim_386.root\n'
p313
aS'/store/group/phys_diffraction/lbyl_2018/mc_lbyl/gen_sim/gen_sim_lbyl/gen_sim_lbyl/190716_093613/0000/LbyL_gen_sim_387.root\n'
p314
aS'/store/group/phys_diffraction/lbyl_2018/mc_lbyl/gen_sim/gen_sim_lbyl/gen_sim_lbyl/190716_093613/0000/LbyL_gen_sim_388.root\n'
p315
aS'/store/group/phys_diffraction/lbyl_2018/mc_lbyl/gen_sim/gen_sim_lbyl/gen_sim_lbyl/190716_093613/0000/LbyL_gen_sim_389.root\n'
p316
aS'/store/group/phys_diffraction/lbyl_2018/mc_lbyl/gen_sim/gen_sim_lbyl/gen_sim_lbyl/190716_093613/0000/LbyL_gen_sim_39.root\n'
p317
aS'/store/group/phys_diffraction/lbyl_2018/mc_lbyl/gen_sim/gen_sim_lbyl/gen_sim_lbyl/190716_093613/0000/LbyL_gen_sim_391.root\n'
p318
aS'/store/group/phys_diffraction/lbyl_2018/mc_lbyl/gen_sim/gen_sim_lbyl/gen_sim_lbyl/190716_093613/0000/LbyL_gen_sim_393.root\n'
p319
aS'/store/group/phys_diffraction/lbyl_2018/mc_lbyl/gen_sim/gen_sim_lbyl/gen_sim_lbyl/190716_093613/0000/LbyL_gen_sim_394.root\n'
p320
aS'/store/group/phys_diffraction/lbyl_2018/mc_lbyl/gen_sim/gen_sim_lbyl/gen_sim_lbyl/190716_093613/0000/LbyL_gen_sim_396.root\n'
p321
aS'/store/group/phys_diffraction/lbyl_2018/mc_lbyl/gen_sim/gen_sim_lbyl/gen_sim_lbyl/190716_093613/0000/LbyL_gen_sim_397.root\n'
p322
aS'/store/group/phys_diffraction/lbyl_2018/mc_lbyl/gen_sim/gen_sim_lbyl/gen_sim_lbyl/190716_093613/0000/LbyL_gen_sim_398.root\n'
p323
aS'/store/group/phys_diffraction/lbyl_2018/mc_lbyl/gen_sim/gen_sim_lbyl/gen_sim_lbyl/190716_093613/0000/LbyL_gen_sim_399.root\n'
p324
aS'/store/group/phys_diffraction/lbyl_2018/mc_lbyl/gen_sim/gen_sim_lbyl/gen_sim_lbyl/190716_093613/0000/LbyL_gen_sim_40.root\n'
p325
aS'/store/group/phys_diffraction/lbyl_2018/mc_lbyl/gen_sim/gen_sim_lbyl/gen_sim_lbyl/190716_093613/0000/LbyL_gen_sim_400.root\n'
p326
aS'/store/group/phys_diffraction/lbyl_2018/mc_lbyl/gen_sim/gen_sim_lbyl/gen_sim_lbyl/190716_093613/0000/LbyL_gen_sim_401.root\n'
p327
aS'/store/group/phys_diffraction/lbyl_2018/mc_lbyl/gen_sim/gen_sim_lbyl/gen_sim_lbyl/190716_093613/0000/LbyL_gen_sim_402.root\n'
p328
aS'/store/group/phys_diffraction/lbyl_2018/mc_lbyl/gen_sim/gen_sim_lbyl/gen_sim_lbyl/190716_093613/0000/LbyL_gen_sim_403.root\n'
p329
aS'/store/group/phys_diffraction/lbyl_2018/mc_lbyl/gen_sim/gen_sim_lbyl/gen_sim_lbyl/190716_093613/0000/LbyL_gen_sim_404.root\n'
p330
aS'/store/group/phys_diffraction/lbyl_2018/mc_lbyl/gen_sim/gen_sim_lbyl/gen_sim_lbyl/190716_093613/0000/LbyL_gen_sim_405.root\n'
p331
aS'/store/group/phys_diffraction/lbyl_2018/mc_lbyl/gen_sim/gen_sim_lbyl/gen_sim_lbyl/190716_093613/0000/LbyL_gen_sim_406.root\n'
p332
aS'/store/group/phys_diffraction/lbyl_2018/mc_lbyl/gen_sim/gen_sim_lbyl/gen_sim_lbyl/190716_093613/0000/LbyL_gen_sim_407.root\n'
p333
aS'/store/group/phys_diffraction/lbyl_2018/mc_lbyl/gen_sim/gen_sim_lbyl/gen_sim_lbyl/190716_093613/0000/LbyL_gen_sim_408.root\n'
p334
aS'/store/group/phys_diffraction/lbyl_2018/mc_lbyl/gen_sim/gen_sim_lbyl/gen_sim_lbyl/190716_093613/0000/LbyL_gen_sim_409.root\n'
p335
aS'/store/group/phys_diffraction/lbyl_2018/mc_lbyl/gen_sim/gen_sim_lbyl/gen_sim_lbyl/190716_093613/0000/LbyL_gen_sim_41.root\n'
p336
aS'/store/group/phys_diffraction/lbyl_2018/mc_lbyl/gen_sim/gen_sim_lbyl/gen_sim_lbyl/190716_093613/0000/LbyL_gen_sim_410.root\n'
p337
aS'/store/group/phys_diffraction/lbyl_2018/mc_lbyl/gen_sim/gen_sim_lbyl/gen_sim_lbyl/190716_093613/0000/LbyL_gen_sim_412.root\n'
p338
aS'/store/group/phys_diffraction/lbyl_2018/mc_lbyl/gen_sim/gen_sim_lbyl/gen_sim_lbyl/190716_093613/0000/LbyL_gen_sim_414.root\n'
p339
aS'/store/group/phys_diffraction/lbyl_2018/mc_lbyl/gen_sim/gen_sim_lbyl/gen_sim_lbyl/190716_093613/0000/LbyL_gen_sim_415.root\n'
p340
aS'/store/group/phys_diffraction/lbyl_2018/mc_lbyl/gen_sim/gen_sim_lbyl/gen_sim_lbyl/190716_093613/0000/LbyL_gen_sim_416.root\n'
p341
aS'/store/group/phys_diffraction/lbyl_2018/mc_lbyl/gen_sim/gen_sim_lbyl/gen_sim_lbyl/190716_093613/0000/LbyL_gen_sim_417.root\n'
p342
aS'/store/group/phys_diffraction/lbyl_2018/mc_lbyl/gen_sim/gen_sim_lbyl/gen_sim_lbyl/190716_093613/0000/LbyL_gen_sim_419.root\n'
p343
aS'/store/group/phys_diffraction/lbyl_2018/mc_lbyl/gen_sim/gen_sim_lbyl/gen_sim_lbyl/190716_093613/0000/LbyL_gen_sim_42.root\n'
p344
aS'/store/group/phys_diffraction/lbyl_2018/mc_lbyl/gen_sim/gen_sim_lbyl/gen_sim_lbyl/190716_093613/0000/LbyL_gen_sim_420.root\n'
p345
aS'/store/group/phys_diffraction/lbyl_2018/mc_lbyl/gen_sim/gen_sim_lbyl/gen_sim_lbyl/190716_093613/0000/LbyL_gen_sim_421.root\n'
p346
aS'/store/group/phys_diffraction/lbyl_2018/mc_lbyl/gen_sim/gen_sim_lbyl/gen_sim_lbyl/190716_093613/0000/LbyL_gen_sim_424.root\n'
p347
aS'/store/group/phys_diffraction/lbyl_2018/mc_lbyl/gen_sim/gen_sim_lbyl/gen_sim_lbyl/190716_093613/0000/LbyL_gen_sim_425.root\n'
p348
aS'/store/group/phys_diffraction/lbyl_2018/mc_lbyl/gen_sim/gen_sim_lbyl/gen_sim_lbyl/190716_093613/0000/LbyL_gen_sim_427.root\n'
p349
aS'/store/group/phys_diffraction/lbyl_2018/mc_lbyl/gen_sim/gen_sim_lbyl/gen_sim_lbyl/190716_093613/0000/LbyL_gen_sim_428.root\n'
p350
aS'/store/group/phys_diffraction/lbyl_2018/mc_lbyl/gen_sim/gen_sim_lbyl/gen_sim_lbyl/190716_093613/0000/LbyL_gen_sim_429.root\n'
p351
aS'/store/group/phys_diffraction/lbyl_2018/mc_lbyl/gen_sim/gen_sim_lbyl/gen_sim_lbyl/190716_093613/0000/LbyL_gen_sim_43.root\n'
p352
aS'/store/group/phys_diffraction/lbyl_2018/mc_lbyl/gen_sim/gen_sim_lbyl/gen_sim_lbyl/190716_093613/0000/LbyL_gen_sim_431.root\n'
p353
aS'/store/group/phys_diffraction/lbyl_2018/mc_lbyl/gen_sim/gen_sim_lbyl/gen_sim_lbyl/190716_093613/0000/LbyL_gen_sim_433.root\n'
p354
aS'/store/group/phys_diffraction/lbyl_2018/mc_lbyl/gen_sim/gen_sim_lbyl/gen_sim_lbyl/190716_093613/0000/LbyL_gen_sim_434.root\n'
p355
aS'/store/group/phys_diffraction/lbyl_2018/mc_lbyl/gen_sim/gen_sim_lbyl/gen_sim_lbyl/190716_093613/0000/LbyL_gen_sim_436.root\n'
p356
aS'/store/group/phys_diffraction/lbyl_2018/mc_lbyl/gen_sim/gen_sim_lbyl/gen_sim_lbyl/190716_093613/0000/LbyL_gen_sim_438.root\n'
p357
aS'/store/group/phys_diffraction/lbyl_2018/mc_lbyl/gen_sim/gen_sim_lbyl/gen_sim_lbyl/190716_093613/0000/LbyL_gen_sim_439.root\n'
p358
aS'/store/group/phys_diffraction/lbyl_2018/mc_lbyl/gen_sim/gen_sim_lbyl/gen_sim_lbyl/190716_093613/0000/LbyL_gen_sim_44.root\n'
p359
aS'/store/group/phys_diffraction/lbyl_2018/mc_lbyl/gen_sim/gen_sim_lbyl/gen_sim_lbyl/190716_093613/0000/LbyL_gen_sim_441.root\n'
p360
aS'/store/group/phys_diffraction/lbyl_2018/mc_lbyl/gen_sim/gen_sim_lbyl/gen_sim_lbyl/190716_093613/0000/LbyL_gen_sim_442.root\n'
p361
aS'/store/group/phys_diffraction/lbyl_2018/mc_lbyl/gen_sim/gen_sim_lbyl/gen_sim_lbyl/190716_093613/0000/LbyL_gen_sim_443.root\n'
p362
aS'/store/group/phys_diffraction/lbyl_2018/mc_lbyl/gen_sim/gen_sim_lbyl/gen_sim_lbyl/190716_093613/0000/LbyL_gen_sim_444.root\n'
p363
aS'/store/group/phys_diffraction/lbyl_2018/mc_lbyl/gen_sim/gen_sim_lbyl/gen_sim_lbyl/190716_093613/0000/LbyL_gen_sim_445.root\n'
p364
aS'/store/group/phys_diffraction/lbyl_2018/mc_lbyl/gen_sim/gen_sim_lbyl/gen_sim_lbyl/190716_093613/0000/LbyL_gen_sim_446.root\n'
p365
aS'/store/group/phys_diffraction/lbyl_2018/mc_lbyl/gen_sim/gen_sim_lbyl/gen_sim_lbyl/190716_093613/0000/LbyL_gen_sim_449.root\n'
p366
aS'/store/group/phys_diffraction/lbyl_2018/mc_lbyl/gen_sim/gen_sim_lbyl/gen_sim_lbyl/190716_093613/0000/LbyL_gen_sim_45.root\n'
p367
aS'/store/group/phys_diffraction/lbyl_2018/mc_lbyl/gen_sim/gen_sim_lbyl/gen_sim_lbyl/190716_093613/0000/LbyL_gen_sim_452.root\n'
p368
aS'/store/group/phys_diffraction/lbyl_2018/mc_lbyl/gen_sim/gen_sim_lbyl/gen_sim_lbyl/190716_093613/0000/LbyL_gen_sim_453.root\n'
p369
aS'/store/group/phys_diffraction/lbyl_2018/mc_lbyl/gen_sim/gen_sim_lbyl/gen_sim_lbyl/190716_093613/0000/LbyL_gen_sim_455.root\n'
p370
aS'/store/group/phys_diffraction/lbyl_2018/mc_lbyl/gen_sim/gen_sim_lbyl/gen_sim_lbyl/190716_093613/0000/LbyL_gen_sim_456.root\n'
p371
aS'/store/group/phys_diffraction/lbyl_2018/mc_lbyl/gen_sim/gen_sim_lbyl/gen_sim_lbyl/190716_093613/0000/LbyL_gen_sim_458.root\n'
p372
aS'/store/group/phys_diffraction/lbyl_2018/mc_lbyl/gen_sim/gen_sim_lbyl/gen_sim_lbyl/190716_093613/0000/LbyL_gen_sim_46.root\n'
p373
aS'/store/group/phys_diffraction/lbyl_2018/mc_lbyl/gen_sim/gen_sim_lbyl/gen_sim_lbyl/190716_093613/0000/LbyL_gen_sim_460.root\n'
p374
aS'/store/group/phys_diffraction/lbyl_2018/mc_lbyl/gen_sim/gen_sim_lbyl/gen_sim_lbyl/190716_093613/0000/LbyL_gen_sim_461.root\n'
p375
aS'/store/group/phys_diffraction/lbyl_2018/mc_lbyl/gen_sim/gen_sim_lbyl/gen_sim_lbyl/190716_093613/0000/LbyL_gen_sim_464.root\n'
p376
aS'/store/group/phys_diffraction/lbyl_2018/mc_lbyl/gen_sim/gen_sim_lbyl/gen_sim_lbyl/190716_093613/0000/LbyL_gen_sim_465.root\n'
p377
aS'/store/group/phys_diffraction/lbyl_2018/mc_lbyl/gen_sim/gen_sim_lbyl/gen_sim_lbyl/190716_093613/0000/LbyL_gen_sim_466.root\n'
p378
aS'/store/group/phys_diffraction/lbyl_2018/mc_lbyl/gen_sim/gen_sim_lbyl/gen_sim_lbyl/190716_093613/0000/LbyL_gen_sim_467.root\n'
p379
aS'/store/group/phys_diffraction/lbyl_2018/mc_lbyl/gen_sim/gen_sim_lbyl/gen_sim_lbyl/190716_093613/0000/LbyL_gen_sim_468.root\n'
p380
aS'/store/group/phys_diffraction/lbyl_2018/mc_lbyl/gen_sim/gen_sim_lbyl/gen_sim_lbyl/190716_093613/0000/LbyL_gen_sim_47.root\n'
p381
aS'/store/group/phys_diffraction/lbyl_2018/mc_lbyl/gen_sim/gen_sim_lbyl/gen_sim_lbyl/190716_093613/0000/LbyL_gen_sim_470.root\n'
p382
aS'/store/group/phys_diffraction/lbyl_2018/mc_lbyl/gen_sim/gen_sim_lbyl/gen_sim_lbyl/190716_093613/0000/LbyL_gen_sim_472.root\n'
p383
aS'/store/group/phys_diffraction/lbyl_2018/mc_lbyl/gen_sim/gen_sim_lbyl/gen_sim_lbyl/190716_093613/0000/LbyL_gen_sim_474.root\n'
p384
aS'/store/group/phys_diffraction/lbyl_2018/mc_lbyl/gen_sim/gen_sim_lbyl/gen_sim_lbyl/190716_093613/0000/LbyL_gen_sim_478.root\n'
p385
aS'/store/group/phys_diffraction/lbyl_2018/mc_lbyl/gen_sim/gen_sim_lbyl/gen_sim_lbyl/190716_093613/0000/LbyL_gen_sim_48.root\n'
p386
aS'/store/group/phys_diffraction/lbyl_2018/mc_lbyl/gen_sim/gen_sim_lbyl/gen_sim_lbyl/190716_093613/0000/LbyL_gen_sim_480.root\n'
p387
aS'/store/group/phys_diffraction/lbyl_2018/mc_lbyl/gen_sim/gen_sim_lbyl/gen_sim_lbyl/190716_093613/0000/LbyL_gen_sim_481.root\n'
p388
aS'/store/group/phys_diffraction/lbyl_2018/mc_lbyl/gen_sim/gen_sim_lbyl/gen_sim_lbyl/190716_093613/0000/LbyL_gen_sim_483.root\n'
p389
aS'/store/group/phys_diffraction/lbyl_2018/mc_lbyl/gen_sim/gen_sim_lbyl/gen_sim_lbyl/190716_093613/0000/LbyL_gen_sim_486.root\n'
p390
aS'/store/group/phys_diffraction/lbyl_2018/mc_lbyl/gen_sim/gen_sim_lbyl/gen_sim_lbyl/190716_093613/0000/LbyL_gen_sim_487.root\n'
p391
aS'/store/group/phys_diffraction/lbyl_2018/mc_lbyl/gen_sim/gen_sim_lbyl/gen_sim_lbyl/190716_093613/0000/LbyL_gen_sim_489.root\n'
p392
aS'/store/group/phys_diffraction/lbyl_2018/mc_lbyl/gen_sim/gen_sim_lbyl/gen_sim_lbyl/190716_093613/0000/LbyL_gen_sim_49.root\n'
p393
aS'/store/group/phys_diffraction/lbyl_2018/mc_lbyl/gen_sim/gen_sim_lbyl/gen_sim_lbyl/190716_093613/0000/LbyL_gen_sim_491.root\n'
p394
aS'/store/group/phys_diffraction/lbyl_2018/mc_lbyl/gen_sim/gen_sim_lbyl/gen_sim_lbyl/190716_093613/0000/LbyL_gen_sim_492.root\n'
p395
aS'/store/group/phys_diffraction/lbyl_2018/mc_lbyl/gen_sim/gen_sim_lbyl/gen_sim_lbyl/190716_093613/0000/LbyL_gen_sim_493.root\n'
p396
aS'/store/group/phys_diffraction/lbyl_2018/mc_lbyl/gen_sim/gen_sim_lbyl/gen_sim_lbyl/190716_093613/0000/LbyL_gen_sim_494.root\n'
p397
aS'/store/group/phys_diffraction/lbyl_2018/mc_lbyl/gen_sim/gen_sim_lbyl/gen_sim_lbyl/190716_093613/0000/LbyL_gen_sim_495.root\n'
p398
aS'/store/group/phys_diffraction/lbyl_2018/mc_lbyl/gen_sim/gen_sim_lbyl/gen_sim_lbyl/190716_093613/0000/LbyL_gen_sim_496.root\n'
p399
aS'/store/group/phys_diffraction/lbyl_2018/mc_lbyl/gen_sim/gen_sim_lbyl/gen_sim_lbyl/190716_093613/0000/LbyL_gen_sim_499.root\n'
p400
aS'/store/group/phys_diffraction/lbyl_2018/mc_lbyl/gen_sim/gen_sim_lbyl/gen_sim_lbyl/190716_093613/0000/LbyL_gen_sim_5.root\n'
p401
aS'/store/group/phys_diffraction/lbyl_2018/mc_lbyl/gen_sim/gen_sim_lbyl/gen_sim_lbyl/190716_093613/0000/LbyL_gen_sim_50.root\n'
p402
aS'/store/group/phys_diffraction/lbyl_2018/mc_lbyl/gen_sim/gen_sim_lbyl/gen_sim_lbyl/190716_093613/0000/LbyL_gen_sim_500.root\n'
p403
aS'/store/group/phys_diffraction/lbyl_2018/mc_lbyl/gen_sim/gen_sim_lbyl/gen_sim_lbyl/190716_093613/0000/LbyL_gen_sim_501.root\n'
p404
aS'/store/group/phys_diffraction/lbyl_2018/mc_lbyl/gen_sim/gen_sim_lbyl/gen_sim_lbyl/190716_093613/0000/LbyL_gen_sim_502.root\n'
p405
aS'/store/group/phys_diffraction/lbyl_2018/mc_lbyl/gen_sim/gen_sim_lbyl/gen_sim_lbyl/190716_093613/0000/LbyL_gen_sim_504.root\n'
p406
aS'/store/group/phys_diffraction/lbyl_2018/mc_lbyl/gen_sim/gen_sim_lbyl/gen_sim_lbyl/190716_093613/0000/LbyL_gen_sim_505.root\n'
p407
aS'/store/group/phys_diffraction/lbyl_2018/mc_lbyl/gen_sim/gen_sim_lbyl/gen_sim_lbyl/190716_093613/0000/LbyL_gen_sim_506.root\n'
p408
aS'/store/group/phys_diffraction/lbyl_2018/mc_lbyl/gen_sim/gen_sim_lbyl/gen_sim_lbyl/190716_093613/0000/LbyL_gen_sim_507.root\n'
p409
aS'/store/group/phys_diffraction/lbyl_2018/mc_lbyl/gen_sim/gen_sim_lbyl/gen_sim_lbyl/190716_093613/0000/LbyL_gen_sim_509.root\n'
p410
aS'/store/group/phys_diffraction/lbyl_2018/mc_lbyl/gen_sim/gen_sim_lbyl/gen_sim_lbyl/190716_093613/0000/LbyL_gen_sim_51.root\n'
p411
aS'/store/group/phys_diffraction/lbyl_2018/mc_lbyl/gen_sim/gen_sim_lbyl/gen_sim_lbyl/190716_093613/0000/LbyL_gen_sim_511.root\n'
p412
aS'/store/group/phys_diffraction/lbyl_2018/mc_lbyl/gen_sim/gen_sim_lbyl/gen_sim_lbyl/190716_093613/0000/LbyL_gen_sim_513.root\n'
p413
aS'/store/group/phys_diffraction/lbyl_2018/mc_lbyl/gen_sim/gen_sim_lbyl/gen_sim_lbyl/190716_093613/0000/LbyL_gen_sim_514.root\n'
p414
aS'/store/group/phys_diffraction/lbyl_2018/mc_lbyl/gen_sim/gen_sim_lbyl/gen_sim_lbyl/190716_093613/0000/LbyL_gen_sim_515.root\n'
p415
aS'/store/group/phys_diffraction/lbyl_2018/mc_lbyl/gen_sim/gen_sim_lbyl/gen_sim_lbyl/190716_093613/0000/LbyL_gen_sim_52.root\n'
p416
aS'/store/group/phys_diffraction/lbyl_2018/mc_lbyl/gen_sim/gen_sim_lbyl/gen_sim_lbyl/190716_093613/0000/LbyL_gen_sim_53.root\n'
p417
aS'/store/group/phys_diffraction/lbyl_2018/mc_lbyl/gen_sim/gen_sim_lbyl/gen_sim_lbyl/190716_093613/0000/LbyL_gen_sim_54.root\n'
p418
aS'/store/group/phys_diffraction/lbyl_2018/mc_lbyl/gen_sim/gen_sim_lbyl/gen_sim_lbyl/190716_093613/0000/LbyL_gen_sim_55.root\n'
p419
aS'/store/group/phys_diffraction/lbyl_2018/mc_lbyl/gen_sim/gen_sim_lbyl/gen_sim_lbyl/190716_093613/0000/LbyL_gen_sim_56.root\n'
p420
aS'/store/group/phys_diffraction/lbyl_2018/mc_lbyl/gen_sim/gen_sim_lbyl/gen_sim_lbyl/190716_093613/0000/LbyL_gen_sim_57.root\n'
p421
aS'/store/group/phys_diffraction/lbyl_2018/mc_lbyl/gen_sim/gen_sim_lbyl/gen_sim_lbyl/190716_093613/0000/LbyL_gen_sim_58.root\n'
p422
aS'/store/group/phys_diffraction/lbyl_2018/mc_lbyl/gen_sim/gen_sim_lbyl/gen_sim_lbyl/190716_093613/0000/LbyL_gen_sim_59.root\n'
p423
aS'/store/group/phys_diffraction/lbyl_2018/mc_lbyl/gen_sim/gen_sim_lbyl/gen_sim_lbyl/190716_093613/0000/LbyL_gen_sim_6.root\n'
p424
aS'/store/group/phys_diffraction/lbyl_2018/mc_lbyl/gen_sim/gen_sim_lbyl/gen_sim_lbyl/190716_093613/0000/LbyL_gen_sim_60.root\n'
p425
aS'/store/group/phys_diffraction/lbyl_2018/mc_lbyl/gen_sim/gen_sim_lbyl/gen_sim_lbyl/190716_093613/0000/LbyL_gen_sim_61.root\n'
p426
aS'/store/group/phys_diffraction/lbyl_2018/mc_lbyl/gen_sim/gen_sim_lbyl/gen_sim_lbyl/190716_093613/0000/LbyL_gen_sim_62.root\n'
p427
aS'/store/group/phys_diffraction/lbyl_2018/mc_lbyl/gen_sim/gen_sim_lbyl/gen_sim_lbyl/190716_093613/0000/LbyL_gen_sim_63.root\n'
p428
aS'/store/group/phys_diffraction/lbyl_2018/mc_lbyl/gen_sim/gen_sim_lbyl/gen_sim_lbyl/190716_093613/0000/LbyL_gen_sim_64.root\n'
p429
aS'/store/group/phys_diffraction/lbyl_2018/mc_lbyl/gen_sim/gen_sim_lbyl/gen_sim_lbyl/190716_093613/0000/LbyL_gen_sim_65.root\n'
p430
aS'/store/group/phys_diffraction/lbyl_2018/mc_lbyl/gen_sim/gen_sim_lbyl/gen_sim_lbyl/190716_093613/0000/LbyL_gen_sim_66.root\n'
p431
aS'/store/group/phys_diffraction/lbyl_2018/mc_lbyl/gen_sim/gen_sim_lbyl/gen_sim_lbyl/190716_093613/0000/LbyL_gen_sim_67.root\n'
p432
aS'/store/group/phys_diffraction/lbyl_2018/mc_lbyl/gen_sim/gen_sim_lbyl/gen_sim_lbyl/190716_093613/0000/LbyL_gen_sim_68.root\n'
p433
aS'/store/group/phys_diffraction/lbyl_2018/mc_lbyl/gen_sim/gen_sim_lbyl/gen_sim_lbyl/190716_093613/0000/LbyL_gen_sim_69.root\n'
p434
aS'/store/group/phys_diffraction/lbyl_2018/mc_lbyl/gen_sim/gen_sim_lbyl/gen_sim_lbyl/190716_093613/0000/LbyL_gen_sim_7.root\n'
p435
aS'/store/group/phys_diffraction/lbyl_2018/mc_lbyl/gen_sim/gen_sim_lbyl/gen_sim_lbyl/190716_093613/0000/LbyL_gen_sim_70.root\n'
p436
aS'/store/group/phys_diffraction/lbyl_2018/mc_lbyl/gen_sim/gen_sim_lbyl/gen_sim_lbyl/190716_093613/0000/LbyL_gen_sim_71.root\n'
p437
aS'/store/group/phys_diffraction/lbyl_2018/mc_lbyl/gen_sim/gen_sim_lbyl/gen_sim_lbyl/190716_093613/0000/LbyL_gen_sim_72.root\n'
p438
aS'/store/group/phys_diffraction/lbyl_2018/mc_lbyl/gen_sim/gen_sim_lbyl/gen_sim_lbyl/190716_093613/0000/LbyL_gen_sim_73.root\n'
p439
aS'/store/group/phys_diffraction/lbyl_2018/mc_lbyl/gen_sim/gen_sim_lbyl/gen_sim_lbyl/190716_093613/0000/LbyL_gen_sim_74.root\n'
p440
aS'/store/group/phys_diffraction/lbyl_2018/mc_lbyl/gen_sim/gen_sim_lbyl/gen_sim_lbyl/190716_093613/0000/LbyL_gen_sim_75.root\n'
p441
aS'/store/group/phys_diffraction/lbyl_2018/mc_lbyl/gen_sim/gen_sim_lbyl/gen_sim_lbyl/190716_093613/0000/LbyL_gen_sim_76.root\n'
p442
aS'/store/group/phys_diffraction/lbyl_2018/mc_lbyl/gen_sim/gen_sim_lbyl/gen_sim_lbyl/190716_093613/0000/LbyL_gen_sim_77.root\n'
p443
aS'/store/group/phys_diffraction/lbyl_2018/mc_lbyl/gen_sim/gen_sim_lbyl/gen_sim_lbyl/190716_093613/0000/LbyL_gen_sim_78.root\n'
p444
aS'/store/group/phys_diffraction/lbyl_2018/mc_lbyl/gen_sim/gen_sim_lbyl/gen_sim_lbyl/190716_093613/0000/LbyL_gen_sim_8.root\n'
p445
aS'/store/group/phys_diffraction/lbyl_2018/mc_lbyl/gen_sim/gen_sim_lbyl/gen_sim_lbyl/190716_093613/0000/LbyL_gen_sim_80.root\n'
p446
aS'/store/group/phys_diffraction/lbyl_2018/mc_lbyl/gen_sim/gen_sim_lbyl/gen_sim_lbyl/190716_093613/0000/LbyL_gen_sim_81.root\n'
p447
aS'/store/group/phys_diffraction/lbyl_2018/mc_lbyl/gen_sim/gen_sim_lbyl/gen_sim_lbyl/190716_093613/0000/LbyL_gen_sim_82.root\n'
p448
aS'/store/group/phys_diffraction/lbyl_2018/mc_lbyl/gen_sim/gen_sim_lbyl/gen_sim_lbyl/190716_093613/0000/LbyL_gen_sim_83.root\n'
p449
aS'/store/group/phys_diffraction/lbyl_2018/mc_lbyl/gen_sim/gen_sim_lbyl/gen_sim_lbyl/190716_093613/0000/LbyL_gen_sim_84.root\n'
p450
aS'/store/group/phys_diffraction/lbyl_2018/mc_lbyl/gen_sim/gen_sim_lbyl/gen_sim_lbyl/190716_093613/0000/LbyL_gen_sim_85.root\n'
p451
aS'/store/group/phys_diffraction/lbyl_2018/mc_lbyl/gen_sim/gen_sim_lbyl/gen_sim_lbyl/190716_093613/0000/LbyL_gen_sim_86.root\n'
p452
aS'/store/group/phys_diffraction/lbyl_2018/mc_lbyl/gen_sim/gen_sim_lbyl/gen_sim_lbyl/190716_093613/0000/LbyL_gen_sim_87.root\n'
p453
aS'/store/group/phys_diffraction/lbyl_2018/mc_lbyl/gen_sim/gen_sim_lbyl/gen_sim_lbyl/190716_093613/0000/LbyL_gen_sim_88.root\n'
p454
aS'/store/group/phys_diffraction/lbyl_2018/mc_lbyl/gen_sim/gen_sim_lbyl/gen_sim_lbyl/190716_093613/0000/LbyL_gen_sim_89.root\n'
p455
aS'/store/group/phys_diffraction/lbyl_2018/mc_lbyl/gen_sim/gen_sim_lbyl/gen_sim_lbyl/190716_093613/0000/LbyL_gen_sim_9.root\n'
p456
aS'/store/group/phys_diffraction/lbyl_2018/mc_lbyl/gen_sim/gen_sim_lbyl/gen_sim_lbyl/190716_093613/0000/LbyL_gen_sim_90.root\n'
p457
aS'/store/group/phys_diffraction/lbyl_2018/mc_lbyl/gen_sim/gen_sim_lbyl/gen_sim_lbyl/190716_093613/0000/LbyL_gen_sim_91.root\n'
p458
aS'/store/group/phys_diffraction/lbyl_2018/mc_lbyl/gen_sim/gen_sim_lbyl/gen_sim_lbyl/190716_093613/0000/LbyL_gen_sim_92.root\n'
p459
aS'/store/group/phys_diffraction/lbyl_2018/mc_lbyl/gen_sim/gen_sim_lbyl/gen_sim_lbyl/190716_093613/0000/LbyL_gen_sim_93.root\n'
p460
aS'/store/group/phys_diffraction/lbyl_2018/mc_lbyl/gen_sim/gen_sim_lbyl/gen_sim_lbyl/190716_093613/0000/LbyL_gen_sim_94.root\n'
p461
aS'/store/group/phys_diffraction/lbyl_2018/mc_lbyl/gen_sim/gen_sim_lbyl/gen_sim_lbyl/190716_093613/0000/LbyL_gen_sim_95.root\n'
p462
aS'/store/group/phys_diffraction/lbyl_2018/mc_lbyl/gen_sim/gen_sim_lbyl/gen_sim_lbyl/190716_093613/0000/LbyL_gen_sim_96.root\n'
p463
aS'/store/group/phys_diffraction/lbyl_2018/mc_lbyl/gen_sim/gen_sim_lbyl/gen_sim_lbyl/190716_093613/0000/LbyL_gen_sim_97.root\n'
p464
aS'/store/group/phys_diffraction/lbyl_2018/mc_lbyl/gen_sim/gen_sim_lbyl/gen_sim_lbyl/190716_093613/0000/LbyL_gen_sim_98.root\n'
p465
aS'/store/group/phys_diffraction/lbyl_2018/mc_lbyl/gen_sim/gen_sim_lbyl/gen_sim_lbyl/190716_093613/0000/LbyL_gen_sim_99.root\n'
p466
asg64
I01
sbsg29
g3
(g9
g5
NtRp467
(dp468
g12
I00
sg13
S''
sg14
g15
((lp469
S'psetName'
p470
aS'pluginName'
p471
aS'maxMemoryMB'
p472
atRp473
sg19
g29
sg20
(dp474
sg471
S'Analysis'
p475
sg22
g15
((ltRp476
sg470
S'step2_DIGI_L1_DIGI2RAW_HLT.py'
p477
sg25
Nsg472
I4000
sbsbsS'voGroup'
p478
S''
sS'Server'
p479
S'cmsweb.cern.ch'
p480
sS'instance'
p481
S'prod'
p482
sS'RequestName'
p483
V190717_184152:jniedzie_crab_digi_raw_lbl
p484
sS'voRole'
p485
S'NULL'
p486
sS'Port'
p487
S''
s.