(dp1
S'OriginalConfig'
p2
ccopy_reg
_reconstructor
p3
(cWMCore.Configuration
Configuration
p4
c__builtin__
object
p5
NtRp6
(dp7
S'Site'
p8
g3
(cWMCore.Configuration
ConfigSection
p9
g5
NtRp10
(dp11
S'_internal_skipChecks'
p12
I00
sS'_internal_documentation'
p13
S''
sS'_internal_settings'
p14
c__builtin__
set
p15
((lp16
S'storageSite'
p17
atRp18
sS'_internal_name'
p19
g8
sS'_internal_docstrings'
p20
(dp21
sS'_internal_children'
p22
g15
((ltRp23
sg17
S'T2_CH_CERN'
p24
sS'_internal_parent_ref'
p25
NsbsS'_internal_sections'
p26
(lp27
S'General'
p28
aS'JobType'
p29
aS'Data'
p30
ag8
aS'User'
p31
aS'Debug'
p32
asg28
g3
(g9
g5
NtRp33
(dp34
S'transferLogs'
p35
I01
sg12
I00
sg13
S''
sg14
g15
((lp36
g35
aS'transferOutputs'
p37
aS'workArea'
p38
aS'requestName'
p39
atRp40
sg19
g28
sg20
(dp41
sg37
I01
sg22
g15
((ltRp42
sg39
S'digi_raw_cep'
p43
sg25
Nsg38
S'crab_projects'
p44
sbsS'_internal_webapps'
p45
(lp46
sg31
g3
(g9
g5
NtRp47
(dp48
g12
I00
sg13
S''
sg14
g15
((ltRp49
sg19
g31
sg20
(dp50
sg22
g15
((ltRp51
sg25
NsbsS'_internal_components'
p52
(lp53
sg32
g3
(g9
g5
NtRp54
(dp55
g12
I00
sg13
S''
sg14
g15
((ltRp56
sg19
g32
sg20
(dp57
sg22
g15
((ltRp58
sg25
Nsbsg30
g3
(g9
g5
NtRp59
(dp60
S'allowNonValidInputDataset'
p61
I01
sg12
I00
sS'unitsPerJob'
p62
I1
sg13
S''
sg14
g15
((lp63
g61
aS'publication'
p64
ag62
aS'userInputFiles'
p65
aS'splitting'
p66
aS'outputDatasetTag'
p67
aS'outLFNDirBase'
p68
aS'outputPrimaryDataset'
p69
atRp70
sg68
S'/store/group/phys_diffraction/lbyl_2018/mc_cep/digi_raw'
p71
sg19
g30
sg66
S'FileBased'
p72
sg20
(dp73
sg67
g43
sg22
g15
((ltRp74
sg69
g43
sg25
Nsg65
(lp75
S'/store/group/phys_diffraction/lbyl_2018/mc_cep/gen_sim/gen_sim_cep/gen_sim_cep/190716_095239/0000/LbyL_gen_sim_100.root\n'
p76
aS'/store/group/phys_diffraction/lbyl_2018/mc_cep/gen_sim/gen_sim_cep/gen_sim_cep/190716_095239/0000/LbyL_gen_sim_102.root\n'
p77
aS'/store/group/phys_diffraction/lbyl_2018/mc_cep/gen_sim/gen_sim_cep/gen_sim_cep/190716_095239/0000/LbyL_gen_sim_103.root\n'
p78
aS'/store/group/phys_diffraction/lbyl_2018/mc_cep/gen_sim/gen_sim_cep/gen_sim_cep/190716_095239/0000/LbyL_gen_sim_105.root\n'
p79
aS'/store/group/phys_diffraction/lbyl_2018/mc_cep/gen_sim/gen_sim_cep/gen_sim_cep/190716_095239/0000/LbyL_gen_sim_108.root\n'
p80
aS'/store/group/phys_diffraction/lbyl_2018/mc_cep/gen_sim/gen_sim_cep/gen_sim_cep/190716_095239/0000/LbyL_gen_sim_109.root\n'
p81
aS'/store/group/phys_diffraction/lbyl_2018/mc_cep/gen_sim/gen_sim_cep/gen_sim_cep/190716_095239/0000/LbyL_gen_sim_11.root\n'
p82
aS'/store/group/phys_diffraction/lbyl_2018/mc_cep/gen_sim/gen_sim_cep/gen_sim_cep/190716_095239/0000/LbyL_gen_sim_112.root\n'
p83
aS'/store/group/phys_diffraction/lbyl_2018/mc_cep/gen_sim/gen_sim_cep/gen_sim_cep/190716_095239/0000/LbyL_gen_sim_113.root\n'
p84
aS'/store/group/phys_diffraction/lbyl_2018/mc_cep/gen_sim/gen_sim_cep/gen_sim_cep/190716_095239/0000/LbyL_gen_sim_114.root\n'
p85
aS'/store/group/phys_diffraction/lbyl_2018/mc_cep/gen_sim/gen_sim_cep/gen_sim_cep/190716_095239/0000/LbyL_gen_sim_118.root\n'
p86
aS'/store/group/phys_diffraction/lbyl_2018/mc_cep/gen_sim/gen_sim_cep/gen_sim_cep/190716_095239/0000/LbyL_gen_sim_121.root\n'
p87
aS'/store/group/phys_diffraction/lbyl_2018/mc_cep/gen_sim/gen_sim_cep/gen_sim_cep/190716_095239/0000/LbyL_gen_sim_124.root\n'
p88
aS'/store/group/phys_diffraction/lbyl_2018/mc_cep/gen_sim/gen_sim_cep/gen_sim_cep/190716_095239/0000/LbyL_gen_sim_125.root\n'
p89
aS'/store/group/phys_diffraction/lbyl_2018/mc_cep/gen_sim/gen_sim_cep/gen_sim_cep/190716_095239/0000/LbyL_gen_sim_127.root\n'
p90
aS'/store/group/phys_diffraction/lbyl_2018/mc_cep/gen_sim/gen_sim_cep/gen_sim_cep/190716_095239/0000/LbyL_gen_sim_128.root\n'
p91
aS'/store/group/phys_diffraction/lbyl_2018/mc_cep/gen_sim/gen_sim_cep/gen_sim_cep/190716_095239/0000/LbyL_gen_sim_129.root\n'
p92
aS'/store/group/phys_diffraction/lbyl_2018/mc_cep/gen_sim/gen_sim_cep/gen_sim_cep/190716_095239/0000/LbyL_gen_sim_130.root\n'
p93
aS'/store/group/phys_diffraction/lbyl_2018/mc_cep/gen_sim/gen_sim_cep/gen_sim_cep/190716_095239/0000/LbyL_gen_sim_131.root\n'
p94
aS'/store/group/phys_diffraction/lbyl_2018/mc_cep/gen_sim/gen_sim_cep/gen_sim_cep/190716_095239/0000/LbyL_gen_sim_132.root\n'
p95
aS'/store/group/phys_diffraction/lbyl_2018/mc_cep/gen_sim/gen_sim_cep/gen_sim_cep/190716_095239/0000/LbyL_gen_sim_133.root\n'
p96
aS'/store/group/phys_diffraction/lbyl_2018/mc_cep/gen_sim/gen_sim_cep/gen_sim_cep/190716_095239/0000/LbyL_gen_sim_134.root\n'
p97
aS'/store/group/phys_diffraction/lbyl_2018/mc_cep/gen_sim/gen_sim_cep/gen_sim_cep/190716_095239/0000/LbyL_gen_sim_135.root\n'
p98
aS'/store/group/phys_diffraction/lbyl_2018/mc_cep/gen_sim/gen_sim_cep/gen_sim_cep/190716_095239/0000/LbyL_gen_sim_136.root\n'
p99
aS'/store/group/phys_diffraction/lbyl_2018/mc_cep/gen_sim/gen_sim_cep/gen_sim_cep/190716_095239/0000/LbyL_gen_sim_137.root\n'
p100
aS'/store/group/phys_diffraction/lbyl_2018/mc_cep/gen_sim/gen_sim_cep/gen_sim_cep/190716_095239/0000/LbyL_gen_sim_138.root\n'
p101
aS'/store/group/phys_diffraction/lbyl_2018/mc_cep/gen_sim/gen_sim_cep/gen_sim_cep/190716_095239/0000/LbyL_gen_sim_139.root\n'
p102
aS'/store/group/phys_diffraction/lbyl_2018/mc_cep/gen_sim/gen_sim_cep/gen_sim_cep/190716_095239/0000/LbyL_gen_sim_140.root\n'
p103
aS'/store/group/phys_diffraction/lbyl_2018/mc_cep/gen_sim/gen_sim_cep/gen_sim_cep/190716_095239/0000/LbyL_gen_sim_141.root\n'
p104
aS'/store/group/phys_diffraction/lbyl_2018/mc_cep/gen_sim/gen_sim_cep/gen_sim_cep/190716_095239/0000/LbyL_gen_sim_142.root\n'
p105
aS'/store/group/phys_diffraction/lbyl_2018/mc_cep/gen_sim/gen_sim_cep/gen_sim_cep/190716_095239/0000/LbyL_gen_sim_143.root\n'
p106
aS'/store/group/phys_diffraction/lbyl_2018/mc_cep/gen_sim/gen_sim_cep/gen_sim_cep/190716_095239/0000/LbyL_gen_sim_144.root\n'
p107
aS'/store/group/phys_diffraction/lbyl_2018/mc_cep/gen_sim/gen_sim_cep/gen_sim_cep/190716_095239/0000/LbyL_gen_sim_145.root\n'
p108
aS'/store/group/phys_diffraction/lbyl_2018/mc_cep/gen_sim/gen_sim_cep/gen_sim_cep/190716_095239/0000/LbyL_gen_sim_151.root\n'
p109
aS'/store/group/phys_diffraction/lbyl_2018/mc_cep/gen_sim/gen_sim_cep/gen_sim_cep/190716_095239/0000/LbyL_gen_sim_153.root\n'
p110
aS'/store/group/phys_diffraction/lbyl_2018/mc_cep/gen_sim/gen_sim_cep/gen_sim_cep/190716_095239/0000/LbyL_gen_sim_156.root\n'
p111
aS'/store/group/phys_diffraction/lbyl_2018/mc_cep/gen_sim/gen_sim_cep/gen_sim_cep/190716_095239/0000/LbyL_gen_sim_157.root\n'
p112
aS'/store/group/phys_diffraction/lbyl_2018/mc_cep/gen_sim/gen_sim_cep/gen_sim_cep/190716_095239/0000/LbyL_gen_sim_158.root\n'
p113
aS'/store/group/phys_diffraction/lbyl_2018/mc_cep/gen_sim/gen_sim_cep/gen_sim_cep/190716_095239/0000/LbyL_gen_sim_164.root\n'
p114
aS'/store/group/phys_diffraction/lbyl_2018/mc_cep/gen_sim/gen_sim_cep/gen_sim_cep/190716_095239/0000/LbyL_gen_sim_167.root\n'
p115
aS'/store/group/phys_diffraction/lbyl_2018/mc_cep/gen_sim/gen_sim_cep/gen_sim_cep/190716_095239/0000/LbyL_gen_sim_168.root\n'
p116
aS'/store/group/phys_diffraction/lbyl_2018/mc_cep/gen_sim/gen_sim_cep/gen_sim_cep/190716_095239/0000/LbyL_gen_sim_172.root\n'
p117
aS'/store/group/phys_diffraction/lbyl_2018/mc_cep/gen_sim/gen_sim_cep/gen_sim_cep/190716_095239/0000/LbyL_gen_sim_174.root\n'
p118
aS'/store/group/phys_diffraction/lbyl_2018/mc_cep/gen_sim/gen_sim_cep/gen_sim_cep/190716_095239/0000/LbyL_gen_sim_18.root\n'
p119
aS'/store/group/phys_diffraction/lbyl_2018/mc_cep/gen_sim/gen_sim_cep/gen_sim_cep/190716_095239/0000/LbyL_gen_sim_182.root\n'
p120
aS'/store/group/phys_diffraction/lbyl_2018/mc_cep/gen_sim/gen_sim_cep/gen_sim_cep/190716_095239/0000/LbyL_gen_sim_188.root\n'
p121
aS'/store/group/phys_diffraction/lbyl_2018/mc_cep/gen_sim/gen_sim_cep/gen_sim_cep/190716_095239/0000/LbyL_gen_sim_189.root\n'
p122
aS'/store/group/phys_diffraction/lbyl_2018/mc_cep/gen_sim/gen_sim_cep/gen_sim_cep/190716_095239/0000/LbyL_gen_sim_19.root\n'
p123
aS'/store/group/phys_diffraction/lbyl_2018/mc_cep/gen_sim/gen_sim_cep/gen_sim_cep/190716_095239/0000/LbyL_gen_sim_190.root\n'
p124
aS'/store/group/phys_diffraction/lbyl_2018/mc_cep/gen_sim/gen_sim_cep/gen_sim_cep/190716_095239/0000/LbyL_gen_sim_195.root\n'
p125
aS'/store/group/phys_diffraction/lbyl_2018/mc_cep/gen_sim/gen_sim_cep/gen_sim_cep/190716_095239/0000/LbyL_gen_sim_20.root\n'
p126
aS'/store/group/phys_diffraction/lbyl_2018/mc_cep/gen_sim/gen_sim_cep/gen_sim_cep/190716_095239/0000/LbyL_gen_sim_203.root\n'
p127
aS'/store/group/phys_diffraction/lbyl_2018/mc_cep/gen_sim/gen_sim_cep/gen_sim_cep/190716_095239/0000/LbyL_gen_sim_214.root\n'
p128
aS'/store/group/phys_diffraction/lbyl_2018/mc_cep/gen_sim/gen_sim_cep/gen_sim_cep/190716_095239/0000/LbyL_gen_sim_215.root\n'
p129
aS'/store/group/phys_diffraction/lbyl_2018/mc_cep/gen_sim/gen_sim_cep/gen_sim_cep/190716_095239/0000/LbyL_gen_sim_216.root\n'
p130
aS'/store/group/phys_diffraction/lbyl_2018/mc_cep/gen_sim/gen_sim_cep/gen_sim_cep/190716_095239/0000/LbyL_gen_sim_219.root\n'
p131
aS'/store/group/phys_diffraction/lbyl_2018/mc_cep/gen_sim/gen_sim_cep/gen_sim_cep/190716_095239/0000/LbyL_gen_sim_220.root\n'
p132
aS'/store/group/phys_diffraction/lbyl_2018/mc_cep/gen_sim/gen_sim_cep/gen_sim_cep/190716_095239/0000/LbyL_gen_sim_221.root\n'
p133
aS'/store/group/phys_diffraction/lbyl_2018/mc_cep/gen_sim/gen_sim_cep/gen_sim_cep/190716_095239/0000/LbyL_gen_sim_226.root\n'
p134
aS'/store/group/phys_diffraction/lbyl_2018/mc_cep/gen_sim/gen_sim_cep/gen_sim_cep/190716_095239/0000/LbyL_gen_sim_227.root\n'
p135
aS'/store/group/phys_diffraction/lbyl_2018/mc_cep/gen_sim/gen_sim_cep/gen_sim_cep/190716_095239/0000/LbyL_gen_sim_229.root\n'
p136
aS'/store/group/phys_diffraction/lbyl_2018/mc_cep/gen_sim/gen_sim_cep/gen_sim_cep/190716_095239/0000/LbyL_gen_sim_23.root\n'
p137
aS'/store/group/phys_diffraction/lbyl_2018/mc_cep/gen_sim/gen_sim_cep/gen_sim_cep/190716_095239/0000/LbyL_gen_sim_233.root\n'
p138
aS'/store/group/phys_diffraction/lbyl_2018/mc_cep/gen_sim/gen_sim_cep/gen_sim_cep/190716_095239/0000/LbyL_gen_sim_234.root\n'
p139
aS'/store/group/phys_diffraction/lbyl_2018/mc_cep/gen_sim/gen_sim_cep/gen_sim_cep/190716_095239/0000/LbyL_gen_sim_235.root\n'
p140
aS'/store/group/phys_diffraction/lbyl_2018/mc_cep/gen_sim/gen_sim_cep/gen_sim_cep/190716_095239/0000/LbyL_gen_sim_236.root\n'
p141
aS'/store/group/phys_diffraction/lbyl_2018/mc_cep/gen_sim/gen_sim_cep/gen_sim_cep/190716_095239/0000/LbyL_gen_sim_238.root\n'
p142
aS'/store/group/phys_diffraction/lbyl_2018/mc_cep/gen_sim/gen_sim_cep/gen_sim_cep/190716_095239/0000/LbyL_gen_sim_24.root\n'
p143
aS'/store/group/phys_diffraction/lbyl_2018/mc_cep/gen_sim/gen_sim_cep/gen_sim_cep/190716_095239/0000/LbyL_gen_sim_242.root\n'
p144
aS'/store/group/phys_diffraction/lbyl_2018/mc_cep/gen_sim/gen_sim_cep/gen_sim_cep/190716_095239/0000/LbyL_gen_sim_246.root\n'
p145
aS'/store/group/phys_diffraction/lbyl_2018/mc_cep/gen_sim/gen_sim_cep/gen_sim_cep/190716_095239/0000/LbyL_gen_sim_247.root\n'
p146
aS'/store/group/phys_diffraction/lbyl_2018/mc_cep/gen_sim/gen_sim_cep/gen_sim_cep/190716_095239/0000/LbyL_gen_sim_249.root\n'
p147
aS'/store/group/phys_diffraction/lbyl_2018/mc_cep/gen_sim/gen_sim_cep/gen_sim_cep/190716_095239/0000/LbyL_gen_sim_252.root\n'
p148
aS'/store/group/phys_diffraction/lbyl_2018/mc_cep/gen_sim/gen_sim_cep/gen_sim_cep/190716_095239/0000/LbyL_gen_sim_254.root\n'
p149
aS'/store/group/phys_diffraction/lbyl_2018/mc_cep/gen_sim/gen_sim_cep/gen_sim_cep/190716_095239/0000/LbyL_gen_sim_255.root\n'
p150
aS'/store/group/phys_diffraction/lbyl_2018/mc_cep/gen_sim/gen_sim_cep/gen_sim_cep/190716_095239/0000/LbyL_gen_sim_258.root\n'
p151
aS'/store/group/phys_diffraction/lbyl_2018/mc_cep/gen_sim/gen_sim_cep/gen_sim_cep/190716_095239/0000/LbyL_gen_sim_259.root\n'
p152
aS'/store/group/phys_diffraction/lbyl_2018/mc_cep/gen_sim/gen_sim_cep/gen_sim_cep/190716_095239/0000/LbyL_gen_sim_260.root\n'
p153
aS'/store/group/phys_diffraction/lbyl_2018/mc_cep/gen_sim/gen_sim_cep/gen_sim_cep/190716_095239/0000/LbyL_gen_sim_262.root\n'
p154
aS'/store/group/phys_diffraction/lbyl_2018/mc_cep/gen_sim/gen_sim_cep/gen_sim_cep/190716_095239/0000/LbyL_gen_sim_263.root\n'
p155
aS'/store/group/phys_diffraction/lbyl_2018/mc_cep/gen_sim/gen_sim_cep/gen_sim_cep/190716_095239/0000/LbyL_gen_sim_267.root\n'
p156
aS'/store/group/phys_diffraction/lbyl_2018/mc_cep/gen_sim/gen_sim_cep/gen_sim_cep/190716_095239/0000/LbyL_gen_sim_270.root\n'
p157
aS'/store/group/phys_diffraction/lbyl_2018/mc_cep/gen_sim/gen_sim_cep/gen_sim_cep/190716_095239/0000/LbyL_gen_sim_271.root\n'
p158
aS'/store/group/phys_diffraction/lbyl_2018/mc_cep/gen_sim/gen_sim_cep/gen_sim_cep/190716_095239/0000/LbyL_gen_sim_274.root\n'
p159
aS'/store/group/phys_diffraction/lbyl_2018/mc_cep/gen_sim/gen_sim_cep/gen_sim_cep/190716_095239/0000/LbyL_gen_sim_275.root\n'
p160
aS'/store/group/phys_diffraction/lbyl_2018/mc_cep/gen_sim/gen_sim_cep/gen_sim_cep/190716_095239/0000/LbyL_gen_sim_276.root\n'
p161
aS'/store/group/phys_diffraction/lbyl_2018/mc_cep/gen_sim/gen_sim_cep/gen_sim_cep/190716_095239/0000/LbyL_gen_sim_277.root\n'
p162
aS'/store/group/phys_diffraction/lbyl_2018/mc_cep/gen_sim/gen_sim_cep/gen_sim_cep/190716_095239/0000/LbyL_gen_sim_278.root\n'
p163
aS'/store/group/phys_diffraction/lbyl_2018/mc_cep/gen_sim/gen_sim_cep/gen_sim_cep/190716_095239/0000/LbyL_gen_sim_281.root\n'
p164
aS'/store/group/phys_diffraction/lbyl_2018/mc_cep/gen_sim/gen_sim_cep/gen_sim_cep/190716_095239/0000/LbyL_gen_sim_286.root\n'
p165
aS'/store/group/phys_diffraction/lbyl_2018/mc_cep/gen_sim/gen_sim_cep/gen_sim_cep/190716_095239/0000/LbyL_gen_sim_291.root\n'
p166
aS'/store/group/phys_diffraction/lbyl_2018/mc_cep/gen_sim/gen_sim_cep/gen_sim_cep/190716_095239/0000/LbyL_gen_sim_292.root\n'
p167
aS'/store/group/phys_diffraction/lbyl_2018/mc_cep/gen_sim/gen_sim_cep/gen_sim_cep/190716_095239/0000/LbyL_gen_sim_299.root\n'
p168
aS'/store/group/phys_diffraction/lbyl_2018/mc_cep/gen_sim/gen_sim_cep/gen_sim_cep/190716_095239/0000/LbyL_gen_sim_301.root\n'
p169
aS'/store/group/phys_diffraction/lbyl_2018/mc_cep/gen_sim/gen_sim_cep/gen_sim_cep/190716_095239/0000/LbyL_gen_sim_302.root\n'
p170
aS'/store/group/phys_diffraction/lbyl_2018/mc_cep/gen_sim/gen_sim_cep/gen_sim_cep/190716_095239/0000/LbyL_gen_sim_304.root\n'
p171
aS'/store/group/phys_diffraction/lbyl_2018/mc_cep/gen_sim/gen_sim_cep/gen_sim_cep/190716_095239/0000/LbyL_gen_sim_307.root\n'
p172
aS'/store/group/phys_diffraction/lbyl_2018/mc_cep/gen_sim/gen_sim_cep/gen_sim_cep/190716_095239/0000/LbyL_gen_sim_31.root\n'
p173
aS'/store/group/phys_diffraction/lbyl_2018/mc_cep/gen_sim/gen_sim_cep/gen_sim_cep/190716_095239/0000/LbyL_gen_sim_314.root\n'
p174
aS'/store/group/phys_diffraction/lbyl_2018/mc_cep/gen_sim/gen_sim_cep/gen_sim_cep/190716_095239/0000/LbyL_gen_sim_315.root\n'
p175
aS'/store/group/phys_diffraction/lbyl_2018/mc_cep/gen_sim/gen_sim_cep/gen_sim_cep/190716_095239/0000/LbyL_gen_sim_316.root\n'
p176
aS'/store/group/phys_diffraction/lbyl_2018/mc_cep/gen_sim/gen_sim_cep/gen_sim_cep/190716_095239/0000/LbyL_gen_sim_317.root\n'
p177
aS'/store/group/phys_diffraction/lbyl_2018/mc_cep/gen_sim/gen_sim_cep/gen_sim_cep/190716_095239/0000/LbyL_gen_sim_318.root\n'
p178
aS'/store/group/phys_diffraction/lbyl_2018/mc_cep/gen_sim/gen_sim_cep/gen_sim_cep/190716_095239/0000/LbyL_gen_sim_319.root\n'
p179
aS'/store/group/phys_diffraction/lbyl_2018/mc_cep/gen_sim/gen_sim_cep/gen_sim_cep/190716_095239/0000/LbyL_gen_sim_32.root\n'
p180
aS'/store/group/phys_diffraction/lbyl_2018/mc_cep/gen_sim/gen_sim_cep/gen_sim_cep/190716_095239/0000/LbyL_gen_sim_320.root\n'
p181
aS'/store/group/phys_diffraction/lbyl_2018/mc_cep/gen_sim/gen_sim_cep/gen_sim_cep/190716_095239/0000/LbyL_gen_sim_322.root\n'
p182
aS'/store/group/phys_diffraction/lbyl_2018/mc_cep/gen_sim/gen_sim_cep/gen_sim_cep/190716_095239/0000/LbyL_gen_sim_323.root\n'
p183
aS'/store/group/phys_diffraction/lbyl_2018/mc_cep/gen_sim/gen_sim_cep/gen_sim_cep/190716_095239/0000/LbyL_gen_sim_324.root\n'
p184
aS'/store/group/phys_diffraction/lbyl_2018/mc_cep/gen_sim/gen_sim_cep/gen_sim_cep/190716_095239/0000/LbyL_gen_sim_326.root\n'
p185
aS'/store/group/phys_diffraction/lbyl_2018/mc_cep/gen_sim/gen_sim_cep/gen_sim_cep/190716_095239/0000/LbyL_gen_sim_327.root\n'
p186
aS'/store/group/phys_diffraction/lbyl_2018/mc_cep/gen_sim/gen_sim_cep/gen_sim_cep/190716_095239/0000/LbyL_gen_sim_329.root\n'
p187
aS'/store/group/phys_diffraction/lbyl_2018/mc_cep/gen_sim/gen_sim_cep/gen_sim_cep/190716_095239/0000/LbyL_gen_sim_331.root\n'
p188
aS'/store/group/phys_diffraction/lbyl_2018/mc_cep/gen_sim/gen_sim_cep/gen_sim_cep/190716_095239/0000/LbyL_gen_sim_332.root\n'
p189
aS'/store/group/phys_diffraction/lbyl_2018/mc_cep/gen_sim/gen_sim_cep/gen_sim_cep/190716_095239/0000/LbyL_gen_sim_333.root\n'
p190
aS'/store/group/phys_diffraction/lbyl_2018/mc_cep/gen_sim/gen_sim_cep/gen_sim_cep/190716_095239/0000/LbyL_gen_sim_335.root\n'
p191
aS'/store/group/phys_diffraction/lbyl_2018/mc_cep/gen_sim/gen_sim_cep/gen_sim_cep/190716_095239/0000/LbyL_gen_sim_336.root\n'
p192
aS'/store/group/phys_diffraction/lbyl_2018/mc_cep/gen_sim/gen_sim_cep/gen_sim_cep/190716_095239/0000/LbyL_gen_sim_337.root\n'
p193
aS'/store/group/phys_diffraction/lbyl_2018/mc_cep/gen_sim/gen_sim_cep/gen_sim_cep/190716_095239/0000/LbyL_gen_sim_34.root\n'
p194
aS'/store/group/phys_diffraction/lbyl_2018/mc_cep/gen_sim/gen_sim_cep/gen_sim_cep/190716_095239/0000/LbyL_gen_sim_343.root\n'
p195
aS'/store/group/phys_diffraction/lbyl_2018/mc_cep/gen_sim/gen_sim_cep/gen_sim_cep/190716_095239/0000/LbyL_gen_sim_346.root\n'
p196
aS'/store/group/phys_diffraction/lbyl_2018/mc_cep/gen_sim/gen_sim_cep/gen_sim_cep/190716_095239/0000/LbyL_gen_sim_347.root\n'
p197
aS'/store/group/phys_diffraction/lbyl_2018/mc_cep/gen_sim/gen_sim_cep/gen_sim_cep/190716_095239/0000/LbyL_gen_sim_349.root\n'
p198
aS'/store/group/phys_diffraction/lbyl_2018/mc_cep/gen_sim/gen_sim_cep/gen_sim_cep/190716_095239/0000/LbyL_gen_sim_350.root\n'
p199
aS'/store/group/phys_diffraction/lbyl_2018/mc_cep/gen_sim/gen_sim_cep/gen_sim_cep/190716_095239/0000/LbyL_gen_sim_351.root\n'
p200
aS'/store/group/phys_diffraction/lbyl_2018/mc_cep/gen_sim/gen_sim_cep/gen_sim_cep/190716_095239/0000/LbyL_gen_sim_352.root\n'
p201
aS'/store/group/phys_diffraction/lbyl_2018/mc_cep/gen_sim/gen_sim_cep/gen_sim_cep/190716_095239/0000/LbyL_gen_sim_353.root\n'
p202
aS'/store/group/phys_diffraction/lbyl_2018/mc_cep/gen_sim/gen_sim_cep/gen_sim_cep/190716_095239/0000/LbyL_gen_sim_354.root\n'
p203
aS'/store/group/phys_diffraction/lbyl_2018/mc_cep/gen_sim/gen_sim_cep/gen_sim_cep/190716_095239/0000/LbyL_gen_sim_355.root\n'
p204
aS'/store/group/phys_diffraction/lbyl_2018/mc_cep/gen_sim/gen_sim_cep/gen_sim_cep/190716_095239/0000/LbyL_gen_sim_356.root\n'
p205
aS'/store/group/phys_diffraction/lbyl_2018/mc_cep/gen_sim/gen_sim_cep/gen_sim_cep/190716_095239/0000/LbyL_gen_sim_357.root\n'
p206
aS'/store/group/phys_diffraction/lbyl_2018/mc_cep/gen_sim/gen_sim_cep/gen_sim_cep/190716_095239/0000/LbyL_gen_sim_358.root\n'
p207
aS'/store/group/phys_diffraction/lbyl_2018/mc_cep/gen_sim/gen_sim_cep/gen_sim_cep/190716_095239/0000/LbyL_gen_sim_361.root\n'
p208
aS'/store/group/phys_diffraction/lbyl_2018/mc_cep/gen_sim/gen_sim_cep/gen_sim_cep/190716_095239/0000/LbyL_gen_sim_362.root\n'
p209
aS'/store/group/phys_diffraction/lbyl_2018/mc_cep/gen_sim/gen_sim_cep/gen_sim_cep/190716_095239/0000/LbyL_gen_sim_363.root\n'
p210
aS'/store/group/phys_diffraction/lbyl_2018/mc_cep/gen_sim/gen_sim_cep/gen_sim_cep/190716_095239/0000/LbyL_gen_sim_365.root\n'
p211
aS'/store/group/phys_diffraction/lbyl_2018/mc_cep/gen_sim/gen_sim_cep/gen_sim_cep/190716_095239/0000/LbyL_gen_sim_366.root\n'
p212
aS'/store/group/phys_diffraction/lbyl_2018/mc_cep/gen_sim/gen_sim_cep/gen_sim_cep/190716_095239/0000/LbyL_gen_sim_368.root\n'
p213
aS'/store/group/phys_diffraction/lbyl_2018/mc_cep/gen_sim/gen_sim_cep/gen_sim_cep/190716_095239/0000/LbyL_gen_sim_369.root\n'
p214
aS'/store/group/phys_diffraction/lbyl_2018/mc_cep/gen_sim/gen_sim_cep/gen_sim_cep/190716_095239/0000/LbyL_gen_sim_37.root\n'
p215
aS'/store/group/phys_diffraction/lbyl_2018/mc_cep/gen_sim/gen_sim_cep/gen_sim_cep/190716_095239/0000/LbyL_gen_sim_372.root\n'
p216
aS'/store/group/phys_diffraction/lbyl_2018/mc_cep/gen_sim/gen_sim_cep/gen_sim_cep/190716_095239/0000/LbyL_gen_sim_373.root\n'
p217
aS'/store/group/phys_diffraction/lbyl_2018/mc_cep/gen_sim/gen_sim_cep/gen_sim_cep/190716_095239/0000/LbyL_gen_sim_374.root\n'
p218
aS'/store/group/phys_diffraction/lbyl_2018/mc_cep/gen_sim/gen_sim_cep/gen_sim_cep/190716_095239/0000/LbyL_gen_sim_381.root\n'
p219
aS'/store/group/phys_diffraction/lbyl_2018/mc_cep/gen_sim/gen_sim_cep/gen_sim_cep/190716_095239/0000/LbyL_gen_sim_384.root\n'
p220
aS'/store/group/phys_diffraction/lbyl_2018/mc_cep/gen_sim/gen_sim_cep/gen_sim_cep/190716_095239/0000/LbyL_gen_sim_39.root\n'
p221
aS'/store/group/phys_diffraction/lbyl_2018/mc_cep/gen_sim/gen_sim_cep/gen_sim_cep/190716_095239/0000/LbyL_gen_sim_392.root\n'
p222
aS'/store/group/phys_diffraction/lbyl_2018/mc_cep/gen_sim/gen_sim_cep/gen_sim_cep/190716_095239/0000/LbyL_gen_sim_393.root\n'
p223
aS'/store/group/phys_diffraction/lbyl_2018/mc_cep/gen_sim/gen_sim_cep/gen_sim_cep/190716_095239/0000/LbyL_gen_sim_394.root\n'
p224
aS'/store/group/phys_diffraction/lbyl_2018/mc_cep/gen_sim/gen_sim_cep/gen_sim_cep/190716_095239/0000/LbyL_gen_sim_396.root\n'
p225
aS'/store/group/phys_diffraction/lbyl_2018/mc_cep/gen_sim/gen_sim_cep/gen_sim_cep/190716_095239/0000/LbyL_gen_sim_397.root\n'
p226
aS'/store/group/phys_diffraction/lbyl_2018/mc_cep/gen_sim/gen_sim_cep/gen_sim_cep/190716_095239/0000/LbyL_gen_sim_402.root\n'
p227
aS'/store/group/phys_diffraction/lbyl_2018/mc_cep/gen_sim/gen_sim_cep/gen_sim_cep/190716_095239/0000/LbyL_gen_sim_403.root\n'
p228
aS'/store/group/phys_diffraction/lbyl_2018/mc_cep/gen_sim/gen_sim_cep/gen_sim_cep/190716_095239/0000/LbyL_gen_sim_410.root\n'
p229
aS'/store/group/phys_diffraction/lbyl_2018/mc_cep/gen_sim/gen_sim_cep/gen_sim_cep/190716_095239/0000/LbyL_gen_sim_412.root\n'
p230
aS'/store/group/phys_diffraction/lbyl_2018/mc_cep/gen_sim/gen_sim_cep/gen_sim_cep/190716_095239/0000/LbyL_gen_sim_415.root\n'
p231
aS'/store/group/phys_diffraction/lbyl_2018/mc_cep/gen_sim/gen_sim_cep/gen_sim_cep/190716_095239/0000/LbyL_gen_sim_417.root\n'
p232
aS'/store/group/phys_diffraction/lbyl_2018/mc_cep/gen_sim/gen_sim_cep/gen_sim_cep/190716_095239/0000/LbyL_gen_sim_420.root\n'
p233
aS'/store/group/phys_diffraction/lbyl_2018/mc_cep/gen_sim/gen_sim_cep/gen_sim_cep/190716_095239/0000/LbyL_gen_sim_421.root\n'
p234
aS'/store/group/phys_diffraction/lbyl_2018/mc_cep/gen_sim/gen_sim_cep/gen_sim_cep/190716_095239/0000/LbyL_gen_sim_423.root\n'
p235
aS'/store/group/phys_diffraction/lbyl_2018/mc_cep/gen_sim/gen_sim_cep/gen_sim_cep/190716_095239/0000/LbyL_gen_sim_424.root\n'
p236
aS'/store/group/phys_diffraction/lbyl_2018/mc_cep/gen_sim/gen_sim_cep/gen_sim_cep/190716_095239/0000/LbyL_gen_sim_428.root\n'
p237
aS'/store/group/phys_diffraction/lbyl_2018/mc_cep/gen_sim/gen_sim_cep/gen_sim_cep/190716_095239/0000/LbyL_gen_sim_430.root\n'
p238
aS'/store/group/phys_diffraction/lbyl_2018/mc_cep/gen_sim/gen_sim_cep/gen_sim_cep/190716_095239/0000/LbyL_gen_sim_431.root\n'
p239
aS'/store/group/phys_diffraction/lbyl_2018/mc_cep/gen_sim/gen_sim_cep/gen_sim_cep/190716_095239/0000/LbyL_gen_sim_432.root\n'
p240
aS'/store/group/phys_diffraction/lbyl_2018/mc_cep/gen_sim/gen_sim_cep/gen_sim_cep/190716_095239/0000/LbyL_gen_sim_435.root\n'
p241
aS'/store/group/phys_diffraction/lbyl_2018/mc_cep/gen_sim/gen_sim_cep/gen_sim_cep/190716_095239/0000/LbyL_gen_sim_436.root\n'
p242
aS'/store/group/phys_diffraction/lbyl_2018/mc_cep/gen_sim/gen_sim_cep/gen_sim_cep/190716_095239/0000/LbyL_gen_sim_439.root\n'
p243
aS'/store/group/phys_diffraction/lbyl_2018/mc_cep/gen_sim/gen_sim_cep/gen_sim_cep/190716_095239/0000/LbyL_gen_sim_442.root\n'
p244
aS'/store/group/phys_diffraction/lbyl_2018/mc_cep/gen_sim/gen_sim_cep/gen_sim_cep/190716_095239/0000/LbyL_gen_sim_443.root\n'
p245
aS'/store/group/phys_diffraction/lbyl_2018/mc_cep/gen_sim/gen_sim_cep/gen_sim_cep/190716_095239/0000/LbyL_gen_sim_444.root\n'
p246
aS'/store/group/phys_diffraction/lbyl_2018/mc_cep/gen_sim/gen_sim_cep/gen_sim_cep/190716_095239/0000/LbyL_gen_sim_446.root\n'
p247
aS'/store/group/phys_diffraction/lbyl_2018/mc_cep/gen_sim/gen_sim_cep/gen_sim_cep/190716_095239/0000/LbyL_gen_sim_447.root\n'
p248
aS'/store/group/phys_diffraction/lbyl_2018/mc_cep/gen_sim/gen_sim_cep/gen_sim_cep/190716_095239/0000/LbyL_gen_sim_449.root\n'
p249
aS'/store/group/phys_diffraction/lbyl_2018/mc_cep/gen_sim/gen_sim_cep/gen_sim_cep/190716_095239/0000/LbyL_gen_sim_450.root\n'
p250
aS'/store/group/phys_diffraction/lbyl_2018/mc_cep/gen_sim/gen_sim_cep/gen_sim_cep/190716_095239/0000/LbyL_gen_sim_453.root\n'
p251
aS'/store/group/phys_diffraction/lbyl_2018/mc_cep/gen_sim/gen_sim_cep/gen_sim_cep/190716_095239/0000/LbyL_gen_sim_455.root\n'
p252
aS'/store/group/phys_diffraction/lbyl_2018/mc_cep/gen_sim/gen_sim_cep/gen_sim_cep/190716_095239/0000/LbyL_gen_sim_458.root\n'
p253
aS'/store/group/phys_diffraction/lbyl_2018/mc_cep/gen_sim/gen_sim_cep/gen_sim_cep/190716_095239/0000/LbyL_gen_sim_46.root\n'
p254
aS'/store/group/phys_diffraction/lbyl_2018/mc_cep/gen_sim/gen_sim_cep/gen_sim_cep/190716_095239/0000/LbyL_gen_sim_460.root\n'
p255
aS'/store/group/phys_diffraction/lbyl_2018/mc_cep/gen_sim/gen_sim_cep/gen_sim_cep/190716_095239/0000/LbyL_gen_sim_466.root\n'
p256
aS'/store/group/phys_diffraction/lbyl_2018/mc_cep/gen_sim/gen_sim_cep/gen_sim_cep/190716_095239/0000/LbyL_gen_sim_468.root\n'
p257
aS'/store/group/phys_diffraction/lbyl_2018/mc_cep/gen_sim/gen_sim_cep/gen_sim_cep/190716_095239/0000/LbyL_gen_sim_47.root\n'
p258
aS'/store/group/phys_diffraction/lbyl_2018/mc_cep/gen_sim/gen_sim_cep/gen_sim_cep/190716_095239/0000/LbyL_gen_sim_472.root\n'
p259
aS'/store/group/phys_diffraction/lbyl_2018/mc_cep/gen_sim/gen_sim_cep/gen_sim_cep/190716_095239/0000/LbyL_gen_sim_473.root\n'
p260
aS'/store/group/phys_diffraction/lbyl_2018/mc_cep/gen_sim/gen_sim_cep/gen_sim_cep/190716_095239/0000/LbyL_gen_sim_474.root\n'
p261
aS'/store/group/phys_diffraction/lbyl_2018/mc_cep/gen_sim/gen_sim_cep/gen_sim_cep/190716_095239/0000/LbyL_gen_sim_475.root\n'
p262
aS'/store/group/phys_diffraction/lbyl_2018/mc_cep/gen_sim/gen_sim_cep/gen_sim_cep/190716_095239/0000/LbyL_gen_sim_476.root\n'
p263
aS'/store/group/phys_diffraction/lbyl_2018/mc_cep/gen_sim/gen_sim_cep/gen_sim_cep/190716_095239/0000/LbyL_gen_sim_479.root\n'
p264
aS'/store/group/phys_diffraction/lbyl_2018/mc_cep/gen_sim/gen_sim_cep/gen_sim_cep/190716_095239/0000/LbyL_gen_sim_482.root\n'
p265
aS'/store/group/phys_diffraction/lbyl_2018/mc_cep/gen_sim/gen_sim_cep/gen_sim_cep/190716_095239/0000/LbyL_gen_sim_483.root\n'
p266
aS'/store/group/phys_diffraction/lbyl_2018/mc_cep/gen_sim/gen_sim_cep/gen_sim_cep/190716_095239/0000/LbyL_gen_sim_486.root\n'
p267
aS'/store/group/phys_diffraction/lbyl_2018/mc_cep/gen_sim/gen_sim_cep/gen_sim_cep/190716_095239/0000/LbyL_gen_sim_488.root\n'
p268
aS'/store/group/phys_diffraction/lbyl_2018/mc_cep/gen_sim/gen_sim_cep/gen_sim_cep/190716_095239/0000/LbyL_gen_sim_490.root\n'
p269
aS'/store/group/phys_diffraction/lbyl_2018/mc_cep/gen_sim/gen_sim_cep/gen_sim_cep/190716_095239/0000/LbyL_gen_sim_493.root\n'
p270
aS'/store/group/phys_diffraction/lbyl_2018/mc_cep/gen_sim/gen_sim_cep/gen_sim_cep/190716_095239/0000/LbyL_gen_sim_496.root\n'
p271
aS'/store/group/phys_diffraction/lbyl_2018/mc_cep/gen_sim/gen_sim_cep/gen_sim_cep/190716_095239/0000/LbyL_gen_sim_499.root\n'
p272
aS'/store/group/phys_diffraction/lbyl_2018/mc_cep/gen_sim/gen_sim_cep/gen_sim_cep/190716_095239/0000/LbyL_gen_sim_500.root\n'
p273
aS'/store/group/phys_diffraction/lbyl_2018/mc_cep/gen_sim/gen_sim_cep/gen_sim_cep/190716_095239/0000/LbyL_gen_sim_502.root\n'
p274
aS'/store/group/phys_diffraction/lbyl_2018/mc_cep/gen_sim/gen_sim_cep/gen_sim_cep/190716_095239/0000/LbyL_gen_sim_503.root\n'
p275
aS'/store/group/phys_diffraction/lbyl_2018/mc_cep/gen_sim/gen_sim_cep/gen_sim_cep/190716_095239/0000/LbyL_gen_sim_504.root\n'
p276
aS'/store/group/phys_diffraction/lbyl_2018/mc_cep/gen_sim/gen_sim_cep/gen_sim_cep/190716_095239/0000/LbyL_gen_sim_505.root\n'
p277
aS'/store/group/phys_diffraction/lbyl_2018/mc_cep/gen_sim/gen_sim_cep/gen_sim_cep/190716_095239/0000/LbyL_gen_sim_506.root\n'
p278
aS'/store/group/phys_diffraction/lbyl_2018/mc_cep/gen_sim/gen_sim_cep/gen_sim_cep/190716_095239/0000/LbyL_gen_sim_509.root\n'
p279
aS'/store/group/phys_diffraction/lbyl_2018/mc_cep/gen_sim/gen_sim_cep/gen_sim_cep/190716_095239/0000/LbyL_gen_sim_51.root\n'
p280
aS'/store/group/phys_diffraction/lbyl_2018/mc_cep/gen_sim/gen_sim_cep/gen_sim_cep/190716_095239/0000/LbyL_gen_sim_512.root\n'
p281
aS'/store/group/phys_diffraction/lbyl_2018/mc_cep/gen_sim/gen_sim_cep/gen_sim_cep/190716_095239/0000/LbyL_gen_sim_517.root\n'
p282
aS'/store/group/phys_diffraction/lbyl_2018/mc_cep/gen_sim/gen_sim_cep/gen_sim_cep/190716_095239/0000/LbyL_gen_sim_518.root\n'
p283
aS'/store/group/phys_diffraction/lbyl_2018/mc_cep/gen_sim/gen_sim_cep/gen_sim_cep/190716_095239/0000/LbyL_gen_sim_52.root\n'
p284
aS'/store/group/phys_diffraction/lbyl_2018/mc_cep/gen_sim/gen_sim_cep/gen_sim_cep/190716_095239/0000/LbyL_gen_sim_520.root\n'
p285
aS'/store/group/phys_diffraction/lbyl_2018/mc_cep/gen_sim/gen_sim_cep/gen_sim_cep/190716_095239/0000/LbyL_gen_sim_522.root\n'
p286
aS'/store/group/phys_diffraction/lbyl_2018/mc_cep/gen_sim/gen_sim_cep/gen_sim_cep/190716_095239/0000/LbyL_gen_sim_523.root\n'
p287
aS'/store/group/phys_diffraction/lbyl_2018/mc_cep/gen_sim/gen_sim_cep/gen_sim_cep/190716_095239/0000/LbyL_gen_sim_526.root\n'
p288
aS'/store/group/phys_diffraction/lbyl_2018/mc_cep/gen_sim/gen_sim_cep/gen_sim_cep/190716_095239/0000/LbyL_gen_sim_530.root\n'
p289
aS'/store/group/phys_diffraction/lbyl_2018/mc_cep/gen_sim/gen_sim_cep/gen_sim_cep/190716_095239/0000/LbyL_gen_sim_531.root\n'
p290
aS'/store/group/phys_diffraction/lbyl_2018/mc_cep/gen_sim/gen_sim_cep/gen_sim_cep/190716_095239/0000/LbyL_gen_sim_534.root\n'
p291
aS'/store/group/phys_diffraction/lbyl_2018/mc_cep/gen_sim/gen_sim_cep/gen_sim_cep/190716_095239/0000/LbyL_gen_sim_538.root\n'
p292
aS'/store/group/phys_diffraction/lbyl_2018/mc_cep/gen_sim/gen_sim_cep/gen_sim_cep/190716_095239/0000/LbyL_gen_sim_539.root\n'
p293
aS'/store/group/phys_diffraction/lbyl_2018/mc_cep/gen_sim/gen_sim_cep/gen_sim_cep/190716_095239/0000/LbyL_gen_sim_541.root\n'
p294
aS'/store/group/phys_diffraction/lbyl_2018/mc_cep/gen_sim/gen_sim_cep/gen_sim_cep/190716_095239/0000/LbyL_gen_sim_542.root\n'
p295
aS'/store/group/phys_diffraction/lbyl_2018/mc_cep/gen_sim/gen_sim_cep/gen_sim_cep/190716_095239/0000/LbyL_gen_sim_543.root\n'
p296
aS'/store/group/phys_diffraction/lbyl_2018/mc_cep/gen_sim/gen_sim_cep/gen_sim_cep/190716_095239/0000/LbyL_gen_sim_544.root\n'
p297
aS'/store/group/phys_diffraction/lbyl_2018/mc_cep/gen_sim/gen_sim_cep/gen_sim_cep/190716_095239/0000/LbyL_gen_sim_545.root\n'
p298
aS'/store/group/phys_diffraction/lbyl_2018/mc_cep/gen_sim/gen_sim_cep/gen_sim_cep/190716_095239/0000/LbyL_gen_sim_546.root\n'
p299
aS'/store/group/phys_diffraction/lbyl_2018/mc_cep/gen_sim/gen_sim_cep/gen_sim_cep/190716_095239/0000/LbyL_gen_sim_547.root\n'
p300
aS'/store/group/phys_diffraction/lbyl_2018/mc_cep/gen_sim/gen_sim_cep/gen_sim_cep/190716_095239/0000/LbyL_gen_sim_548.root\n'
p301
aS'/store/group/phys_diffraction/lbyl_2018/mc_cep/gen_sim/gen_sim_cep/gen_sim_cep/190716_095239/0000/LbyL_gen_sim_550.root\n'
p302
aS'/store/group/phys_diffraction/lbyl_2018/mc_cep/gen_sim/gen_sim_cep/gen_sim_cep/190716_095239/0000/LbyL_gen_sim_551.root\n'
p303
aS'/store/group/phys_diffraction/lbyl_2018/mc_cep/gen_sim/gen_sim_cep/gen_sim_cep/190716_095239/0000/LbyL_gen_sim_552.root\n'
p304
aS'/store/group/phys_diffraction/lbyl_2018/mc_cep/gen_sim/gen_sim_cep/gen_sim_cep/190716_095239/0000/LbyL_gen_sim_555.root\n'
p305
aS'/store/group/phys_diffraction/lbyl_2018/mc_cep/gen_sim/gen_sim_cep/gen_sim_cep/190716_095239/0000/LbyL_gen_sim_558.root\n'
p306
aS'/store/group/phys_diffraction/lbyl_2018/mc_cep/gen_sim/gen_sim_cep/gen_sim_cep/190716_095239/0000/LbyL_gen_sim_559.root\n'
p307
aS'/store/group/phys_diffraction/lbyl_2018/mc_cep/gen_sim/gen_sim_cep/gen_sim_cep/190716_095239/0000/LbyL_gen_sim_56.root\n'
p308
aS'/store/group/phys_diffraction/lbyl_2018/mc_cep/gen_sim/gen_sim_cep/gen_sim_cep/190716_095239/0000/LbyL_gen_sim_560.root\n'
p309
aS'/store/group/phys_diffraction/lbyl_2018/mc_cep/gen_sim/gen_sim_cep/gen_sim_cep/190716_095239/0000/LbyL_gen_sim_563.root\n'
p310
aS'/store/group/phys_diffraction/lbyl_2018/mc_cep/gen_sim/gen_sim_cep/gen_sim_cep/190716_095239/0000/LbyL_gen_sim_564.root\n'
p311
aS'/store/group/phys_diffraction/lbyl_2018/mc_cep/gen_sim/gen_sim_cep/gen_sim_cep/190716_095239/0000/LbyL_gen_sim_565.root\n'
p312
aS'/store/group/phys_diffraction/lbyl_2018/mc_cep/gen_sim/gen_sim_cep/gen_sim_cep/190716_095239/0000/LbyL_gen_sim_567.root\n'
p313
aS'/store/group/phys_diffraction/lbyl_2018/mc_cep/gen_sim/gen_sim_cep/gen_sim_cep/190716_095239/0000/LbyL_gen_sim_568.root\n'
p314
aS'/store/group/phys_diffraction/lbyl_2018/mc_cep/gen_sim/gen_sim_cep/gen_sim_cep/190716_095239/0000/LbyL_gen_sim_569.root\n'
p315
aS'/store/group/phys_diffraction/lbyl_2018/mc_cep/gen_sim/gen_sim_cep/gen_sim_cep/190716_095239/0000/LbyL_gen_sim_57.root\n'
p316
aS'/store/group/phys_diffraction/lbyl_2018/mc_cep/gen_sim/gen_sim_cep/gen_sim_cep/190716_095239/0000/LbyL_gen_sim_570.root\n'
p317
aS'/store/group/phys_diffraction/lbyl_2018/mc_cep/gen_sim/gen_sim_cep/gen_sim_cep/190716_095239/0000/LbyL_gen_sim_574.root\n'
p318
aS'/store/group/phys_diffraction/lbyl_2018/mc_cep/gen_sim/gen_sim_cep/gen_sim_cep/190716_095239/0000/LbyL_gen_sim_575.root\n'
p319
aS'/store/group/phys_diffraction/lbyl_2018/mc_cep/gen_sim/gen_sim_cep/gen_sim_cep/190716_095239/0000/LbyL_gen_sim_577.root\n'
p320
aS'/store/group/phys_diffraction/lbyl_2018/mc_cep/gen_sim/gen_sim_cep/gen_sim_cep/190716_095239/0000/LbyL_gen_sim_579.root\n'
p321
aS'/store/group/phys_diffraction/lbyl_2018/mc_cep/gen_sim/gen_sim_cep/gen_sim_cep/190716_095239/0000/LbyL_gen_sim_58.root\n'
p322
aS'/store/group/phys_diffraction/lbyl_2018/mc_cep/gen_sim/gen_sim_cep/gen_sim_cep/190716_095239/0000/LbyL_gen_sim_580.root\n'
p323
aS'/store/group/phys_diffraction/lbyl_2018/mc_cep/gen_sim/gen_sim_cep/gen_sim_cep/190716_095239/0000/LbyL_gen_sim_584.root\n'
p324
aS'/store/group/phys_diffraction/lbyl_2018/mc_cep/gen_sim/gen_sim_cep/gen_sim_cep/190716_095239/0000/LbyL_gen_sim_585.root\n'
p325
aS'/store/group/phys_diffraction/lbyl_2018/mc_cep/gen_sim/gen_sim_cep/gen_sim_cep/190716_095239/0000/LbyL_gen_sim_588.root\n'
p326
aS'/store/group/phys_diffraction/lbyl_2018/mc_cep/gen_sim/gen_sim_cep/gen_sim_cep/190716_095239/0000/LbyL_gen_sim_589.root\n'
p327
aS'/store/group/phys_diffraction/lbyl_2018/mc_cep/gen_sim/gen_sim_cep/gen_sim_cep/190716_095239/0000/LbyL_gen_sim_590.root\n'
p328
aS'/store/group/phys_diffraction/lbyl_2018/mc_cep/gen_sim/gen_sim_cep/gen_sim_cep/190716_095239/0000/LbyL_gen_sim_591.root\n'
p329
aS'/store/group/phys_diffraction/lbyl_2018/mc_cep/gen_sim/gen_sim_cep/gen_sim_cep/190716_095239/0000/LbyL_gen_sim_592.root\n'
p330
aS'/store/group/phys_diffraction/lbyl_2018/mc_cep/gen_sim/gen_sim_cep/gen_sim_cep/190716_095239/0000/LbyL_gen_sim_596.root\n'
p331
aS'/store/group/phys_diffraction/lbyl_2018/mc_cep/gen_sim/gen_sim_cep/gen_sim_cep/190716_095239/0000/LbyL_gen_sim_597.root\n'
p332
aS'/store/group/phys_diffraction/lbyl_2018/mc_cep/gen_sim/gen_sim_cep/gen_sim_cep/190716_095239/0000/LbyL_gen_sim_598.root\n'
p333
aS'/store/group/phys_diffraction/lbyl_2018/mc_cep/gen_sim/gen_sim_cep/gen_sim_cep/190716_095239/0000/LbyL_gen_sim_6.root\n'
p334
aS'/store/group/phys_diffraction/lbyl_2018/mc_cep/gen_sim/gen_sim_cep/gen_sim_cep/190716_095239/0000/LbyL_gen_sim_60.root\n'
p335
aS'/store/group/phys_diffraction/lbyl_2018/mc_cep/gen_sim/gen_sim_cep/gen_sim_cep/190716_095239/0000/LbyL_gen_sim_601.root\n'
p336
aS'/store/group/phys_diffraction/lbyl_2018/mc_cep/gen_sim/gen_sim_cep/gen_sim_cep/190716_095239/0000/LbyL_gen_sim_602.root\n'
p337
aS'/store/group/phys_diffraction/lbyl_2018/mc_cep/gen_sim/gen_sim_cep/gen_sim_cep/190716_095239/0000/LbyL_gen_sim_603.root\n'
p338
aS'/store/group/phys_diffraction/lbyl_2018/mc_cep/gen_sim/gen_sim_cep/gen_sim_cep/190716_095239/0000/LbyL_gen_sim_605.root\n'
p339
aS'/store/group/phys_diffraction/lbyl_2018/mc_cep/gen_sim/gen_sim_cep/gen_sim_cep/190716_095239/0000/LbyL_gen_sim_606.root\n'
p340
aS'/store/group/phys_diffraction/lbyl_2018/mc_cep/gen_sim/gen_sim_cep/gen_sim_cep/190716_095239/0000/LbyL_gen_sim_607.root\n'
p341
aS'/store/group/phys_diffraction/lbyl_2018/mc_cep/gen_sim/gen_sim_cep/gen_sim_cep/190716_095239/0000/LbyL_gen_sim_609.root\n'
p342
aS'/store/group/phys_diffraction/lbyl_2018/mc_cep/gen_sim/gen_sim_cep/gen_sim_cep/190716_095239/0000/LbyL_gen_sim_610.root\n'
p343
aS'/store/group/phys_diffraction/lbyl_2018/mc_cep/gen_sim/gen_sim_cep/gen_sim_cep/190716_095239/0000/LbyL_gen_sim_611.root\n'
p344
aS'/store/group/phys_diffraction/lbyl_2018/mc_cep/gen_sim/gen_sim_cep/gen_sim_cep/190716_095239/0000/LbyL_gen_sim_612.root\n'
p345
aS'/store/group/phys_diffraction/lbyl_2018/mc_cep/gen_sim/gen_sim_cep/gen_sim_cep/190716_095239/0000/LbyL_gen_sim_613.root\n'
p346
aS'/store/group/phys_diffraction/lbyl_2018/mc_cep/gen_sim/gen_sim_cep/gen_sim_cep/190716_095239/0000/LbyL_gen_sim_614.root\n'
p347
aS'/store/group/phys_diffraction/lbyl_2018/mc_cep/gen_sim/gen_sim_cep/gen_sim_cep/190716_095239/0000/LbyL_gen_sim_615.root\n'
p348
aS'/store/group/phys_diffraction/lbyl_2018/mc_cep/gen_sim/gen_sim_cep/gen_sim_cep/190716_095239/0000/LbyL_gen_sim_616.root\n'
p349
aS'/store/group/phys_diffraction/lbyl_2018/mc_cep/gen_sim/gen_sim_cep/gen_sim_cep/190716_095239/0000/LbyL_gen_sim_618.root\n'
p350
aS'/store/group/phys_diffraction/lbyl_2018/mc_cep/gen_sim/gen_sim_cep/gen_sim_cep/190716_095239/0000/LbyL_gen_sim_619.root\n'
p351
aS'/store/group/phys_diffraction/lbyl_2018/mc_cep/gen_sim/gen_sim_cep/gen_sim_cep/190716_095239/0000/LbyL_gen_sim_620.root\n'
p352
aS'/store/group/phys_diffraction/lbyl_2018/mc_cep/gen_sim/gen_sim_cep/gen_sim_cep/190716_095239/0000/LbyL_gen_sim_621.root\n'
p353
aS'/store/group/phys_diffraction/lbyl_2018/mc_cep/gen_sim/gen_sim_cep/gen_sim_cep/190716_095239/0000/LbyL_gen_sim_626.root\n'
p354
aS'/store/group/phys_diffraction/lbyl_2018/mc_cep/gen_sim/gen_sim_cep/gen_sim_cep/190716_095239/0000/LbyL_gen_sim_627.root\n'
p355
aS'/store/group/phys_diffraction/lbyl_2018/mc_cep/gen_sim/gen_sim_cep/gen_sim_cep/190716_095239/0000/LbyL_gen_sim_628.root\n'
p356
aS'/store/group/phys_diffraction/lbyl_2018/mc_cep/gen_sim/gen_sim_cep/gen_sim_cep/190716_095239/0000/LbyL_gen_sim_629.root\n'
p357
aS'/store/group/phys_diffraction/lbyl_2018/mc_cep/gen_sim/gen_sim_cep/gen_sim_cep/190716_095239/0000/LbyL_gen_sim_630.root\n'
p358
aS'/store/group/phys_diffraction/lbyl_2018/mc_cep/gen_sim/gen_sim_cep/gen_sim_cep/190716_095239/0000/LbyL_gen_sim_633.root\n'
p359
aS'/store/group/phys_diffraction/lbyl_2018/mc_cep/gen_sim/gen_sim_cep/gen_sim_cep/190716_095239/0000/LbyL_gen_sim_634.root\n'
p360
aS'/store/group/phys_diffraction/lbyl_2018/mc_cep/gen_sim/gen_sim_cep/gen_sim_cep/190716_095239/0000/LbyL_gen_sim_635.root\n'
p361
aS'/store/group/phys_diffraction/lbyl_2018/mc_cep/gen_sim/gen_sim_cep/gen_sim_cep/190716_095239/0000/LbyL_gen_sim_636.root\n'
p362
aS'/store/group/phys_diffraction/lbyl_2018/mc_cep/gen_sim/gen_sim_cep/gen_sim_cep/190716_095239/0000/LbyL_gen_sim_638.root\n'
p363
aS'/store/group/phys_diffraction/lbyl_2018/mc_cep/gen_sim/gen_sim_cep/gen_sim_cep/190716_095239/0000/LbyL_gen_sim_64.root\n'
p364
aS'/store/group/phys_diffraction/lbyl_2018/mc_cep/gen_sim/gen_sim_cep/gen_sim_cep/190716_095239/0000/LbyL_gen_sim_640.root\n'
p365
aS'/store/group/phys_diffraction/lbyl_2018/mc_cep/gen_sim/gen_sim_cep/gen_sim_cep/190716_095239/0000/LbyL_gen_sim_641.root\n'
p366
aS'/store/group/phys_diffraction/lbyl_2018/mc_cep/gen_sim/gen_sim_cep/gen_sim_cep/190716_095239/0000/LbyL_gen_sim_642.root\n'
p367
aS'/store/group/phys_diffraction/lbyl_2018/mc_cep/gen_sim/gen_sim_cep/gen_sim_cep/190716_095239/0000/LbyL_gen_sim_646.root\n'
p368
aS'/store/group/phys_diffraction/lbyl_2018/mc_cep/gen_sim/gen_sim_cep/gen_sim_cep/190716_095239/0000/LbyL_gen_sim_647.root\n'
p369
aS'/store/group/phys_diffraction/lbyl_2018/mc_cep/gen_sim/gen_sim_cep/gen_sim_cep/190716_095239/0000/LbyL_gen_sim_648.root\n'
p370
aS'/store/group/phys_diffraction/lbyl_2018/mc_cep/gen_sim/gen_sim_cep/gen_sim_cep/190716_095239/0000/LbyL_gen_sim_649.root\n'
p371
aS'/store/group/phys_diffraction/lbyl_2018/mc_cep/gen_sim/gen_sim_cep/gen_sim_cep/190716_095239/0000/LbyL_gen_sim_650.root\n'
p372
aS'/store/group/phys_diffraction/lbyl_2018/mc_cep/gen_sim/gen_sim_cep/gen_sim_cep/190716_095239/0000/LbyL_gen_sim_651.root\n'
p373
aS'/store/group/phys_diffraction/lbyl_2018/mc_cep/gen_sim/gen_sim_cep/gen_sim_cep/190716_095239/0000/LbyL_gen_sim_652.root\n'
p374
aS'/store/group/phys_diffraction/lbyl_2018/mc_cep/gen_sim/gen_sim_cep/gen_sim_cep/190716_095239/0000/LbyL_gen_sim_653.root\n'
p375
aS'/store/group/phys_diffraction/lbyl_2018/mc_cep/gen_sim/gen_sim_cep/gen_sim_cep/190716_095239/0000/LbyL_gen_sim_655.root\n'
p376
aS'/store/group/phys_diffraction/lbyl_2018/mc_cep/gen_sim/gen_sim_cep/gen_sim_cep/190716_095239/0000/LbyL_gen_sim_656.root\n'
p377
aS'/store/group/phys_diffraction/lbyl_2018/mc_cep/gen_sim/gen_sim_cep/gen_sim_cep/190716_095239/0000/LbyL_gen_sim_657.root\n'
p378
aS'/store/group/phys_diffraction/lbyl_2018/mc_cep/gen_sim/gen_sim_cep/gen_sim_cep/190716_095239/0000/LbyL_gen_sim_658.root\n'
p379
aS'/store/group/phys_diffraction/lbyl_2018/mc_cep/gen_sim/gen_sim_cep/gen_sim_cep/190716_095239/0000/LbyL_gen_sim_659.root\n'
p380
aS'/store/group/phys_diffraction/lbyl_2018/mc_cep/gen_sim/gen_sim_cep/gen_sim_cep/190716_095239/0000/LbyL_gen_sim_66.root\n'
p381
aS'/store/group/phys_diffraction/lbyl_2018/mc_cep/gen_sim/gen_sim_cep/gen_sim_cep/190716_095239/0000/LbyL_gen_sim_660.root\n'
p382
aS'/store/group/phys_diffraction/lbyl_2018/mc_cep/gen_sim/gen_sim_cep/gen_sim_cep/190716_095239/0000/LbyL_gen_sim_662.root\n'
p383
aS'/store/group/phys_diffraction/lbyl_2018/mc_cep/gen_sim/gen_sim_cep/gen_sim_cep/190716_095239/0000/LbyL_gen_sim_665.root\n'
p384
aS'/store/group/phys_diffraction/lbyl_2018/mc_cep/gen_sim/gen_sim_cep/gen_sim_cep/190716_095239/0000/LbyL_gen_sim_666.root\n'
p385
aS'/store/group/phys_diffraction/lbyl_2018/mc_cep/gen_sim/gen_sim_cep/gen_sim_cep/190716_095239/0000/LbyL_gen_sim_668.root\n'
p386
aS'/store/group/phys_diffraction/lbyl_2018/mc_cep/gen_sim/gen_sim_cep/gen_sim_cep/190716_095239/0000/LbyL_gen_sim_669.root\n'
p387
aS'/store/group/phys_diffraction/lbyl_2018/mc_cep/gen_sim/gen_sim_cep/gen_sim_cep/190716_095239/0000/LbyL_gen_sim_67.root\n'
p388
aS'/store/group/phys_diffraction/lbyl_2018/mc_cep/gen_sim/gen_sim_cep/gen_sim_cep/190716_095239/0000/LbyL_gen_sim_670.root\n'
p389
aS'/store/group/phys_diffraction/lbyl_2018/mc_cep/gen_sim/gen_sim_cep/gen_sim_cep/190716_095239/0000/LbyL_gen_sim_674.root\n'
p390
aS'/store/group/phys_diffraction/lbyl_2018/mc_cep/gen_sim/gen_sim_cep/gen_sim_cep/190716_095239/0000/LbyL_gen_sim_675.root\n'
p391
aS'/store/group/phys_diffraction/lbyl_2018/mc_cep/gen_sim/gen_sim_cep/gen_sim_cep/190716_095239/0000/LbyL_gen_sim_676.root\n'
p392
aS'/store/group/phys_diffraction/lbyl_2018/mc_cep/gen_sim/gen_sim_cep/gen_sim_cep/190716_095239/0000/LbyL_gen_sim_677.root\n'
p393
aS'/store/group/phys_diffraction/lbyl_2018/mc_cep/gen_sim/gen_sim_cep/gen_sim_cep/190716_095239/0000/LbyL_gen_sim_680.root\n'
p394
aS'/store/group/phys_diffraction/lbyl_2018/mc_cep/gen_sim/gen_sim_cep/gen_sim_cep/190716_095239/0000/LbyL_gen_sim_681.root\n'
p395
aS'/store/group/phys_diffraction/lbyl_2018/mc_cep/gen_sim/gen_sim_cep/gen_sim_cep/190716_095239/0000/LbyL_gen_sim_682.root\n'
p396
aS'/store/group/phys_diffraction/lbyl_2018/mc_cep/gen_sim/gen_sim_cep/gen_sim_cep/190716_095239/0000/LbyL_gen_sim_684.root\n'
p397
aS'/store/group/phys_diffraction/lbyl_2018/mc_cep/gen_sim/gen_sim_cep/gen_sim_cep/190716_095239/0000/LbyL_gen_sim_685.root\n'
p398
aS'/store/group/phys_diffraction/lbyl_2018/mc_cep/gen_sim/gen_sim_cep/gen_sim_cep/190716_095239/0000/LbyL_gen_sim_686.root\n'
p399
aS'/store/group/phys_diffraction/lbyl_2018/mc_cep/gen_sim/gen_sim_cep/gen_sim_cep/190716_095239/0000/LbyL_gen_sim_687.root\n'
p400
aS'/store/group/phys_diffraction/lbyl_2018/mc_cep/gen_sim/gen_sim_cep/gen_sim_cep/190716_095239/0000/LbyL_gen_sim_688.root\n'
p401
aS'/store/group/phys_diffraction/lbyl_2018/mc_cep/gen_sim/gen_sim_cep/gen_sim_cep/190716_095239/0000/LbyL_gen_sim_689.root\n'
p402
aS'/store/group/phys_diffraction/lbyl_2018/mc_cep/gen_sim/gen_sim_cep/gen_sim_cep/190716_095239/0000/LbyL_gen_sim_69.root\n'
p403
aS'/store/group/phys_diffraction/lbyl_2018/mc_cep/gen_sim/gen_sim_cep/gen_sim_cep/190716_095239/0000/LbyL_gen_sim_690.root\n'
p404
aS'/store/group/phys_diffraction/lbyl_2018/mc_cep/gen_sim/gen_sim_cep/gen_sim_cep/190716_095239/0000/LbyL_gen_sim_691.root\n'
p405
aS'/store/group/phys_diffraction/lbyl_2018/mc_cep/gen_sim/gen_sim_cep/gen_sim_cep/190716_095239/0000/LbyL_gen_sim_692.root\n'
p406
aS'/store/group/phys_diffraction/lbyl_2018/mc_cep/gen_sim/gen_sim_cep/gen_sim_cep/190716_095239/0000/LbyL_gen_sim_696.root\n'
p407
aS'/store/group/phys_diffraction/lbyl_2018/mc_cep/gen_sim/gen_sim_cep/gen_sim_cep/190716_095239/0000/LbyL_gen_sim_7.root\n'
p408
aS'/store/group/phys_diffraction/lbyl_2018/mc_cep/gen_sim/gen_sim_cep/gen_sim_cep/190716_095239/0000/LbyL_gen_sim_70.root\n'
p409
aS'/store/group/phys_diffraction/lbyl_2018/mc_cep/gen_sim/gen_sim_cep/gen_sim_cep/190716_095239/0000/LbyL_gen_sim_700.root\n'
p410
aS'/store/group/phys_diffraction/lbyl_2018/mc_cep/gen_sim/gen_sim_cep/gen_sim_cep/190716_095239/0000/LbyL_gen_sim_701.root\n'
p411
aS'/store/group/phys_diffraction/lbyl_2018/mc_cep/gen_sim/gen_sim_cep/gen_sim_cep/190716_095239/0000/LbyL_gen_sim_702.root\n'
p412
aS'/store/group/phys_diffraction/lbyl_2018/mc_cep/gen_sim/gen_sim_cep/gen_sim_cep/190716_095239/0000/LbyL_gen_sim_703.root\n'
p413
aS'/store/group/phys_diffraction/lbyl_2018/mc_cep/gen_sim/gen_sim_cep/gen_sim_cep/190716_095239/0000/LbyL_gen_sim_704.root\n'
p414
aS'/store/group/phys_diffraction/lbyl_2018/mc_cep/gen_sim/gen_sim_cep/gen_sim_cep/190716_095239/0000/LbyL_gen_sim_707.root\n'
p415
aS'/store/group/phys_diffraction/lbyl_2018/mc_cep/gen_sim/gen_sim_cep/gen_sim_cep/190716_095239/0000/LbyL_gen_sim_708.root\n'
p416
aS'/store/group/phys_diffraction/lbyl_2018/mc_cep/gen_sim/gen_sim_cep/gen_sim_cep/190716_095239/0000/LbyL_gen_sim_709.root\n'
p417
aS'/store/group/phys_diffraction/lbyl_2018/mc_cep/gen_sim/gen_sim_cep/gen_sim_cep/190716_095239/0000/LbyL_gen_sim_71.root\n'
p418
aS'/store/group/phys_diffraction/lbyl_2018/mc_cep/gen_sim/gen_sim_cep/gen_sim_cep/190716_095239/0000/LbyL_gen_sim_710.root\n'
p419
aS'/store/group/phys_diffraction/lbyl_2018/mc_cep/gen_sim/gen_sim_cep/gen_sim_cep/190716_095239/0000/LbyL_gen_sim_719.root\n'
p420
aS'/store/group/phys_diffraction/lbyl_2018/mc_cep/gen_sim/gen_sim_cep/gen_sim_cep/190716_095239/0000/LbyL_gen_sim_72.root\n'
p421
aS'/store/group/phys_diffraction/lbyl_2018/mc_cep/gen_sim/gen_sim_cep/gen_sim_cep/190716_095239/0000/LbyL_gen_sim_720.root\n'
p422
aS'/store/group/phys_diffraction/lbyl_2018/mc_cep/gen_sim/gen_sim_cep/gen_sim_cep/190716_095239/0000/LbyL_gen_sim_721.root\n'
p423
aS'/store/group/phys_diffraction/lbyl_2018/mc_cep/gen_sim/gen_sim_cep/gen_sim_cep/190716_095239/0000/LbyL_gen_sim_722.root\n'
p424
aS'/store/group/phys_diffraction/lbyl_2018/mc_cep/gen_sim/gen_sim_cep/gen_sim_cep/190716_095239/0000/LbyL_gen_sim_723.root\n'
p425
aS'/store/group/phys_diffraction/lbyl_2018/mc_cep/gen_sim/gen_sim_cep/gen_sim_cep/190716_095239/0000/LbyL_gen_sim_724.root\n'
p426
aS'/store/group/phys_diffraction/lbyl_2018/mc_cep/gen_sim/gen_sim_cep/gen_sim_cep/190716_095239/0000/LbyL_gen_sim_725.root\n'
p427
aS'/store/group/phys_diffraction/lbyl_2018/mc_cep/gen_sim/gen_sim_cep/gen_sim_cep/190716_095239/0000/LbyL_gen_sim_726.root\n'
p428
aS'/store/group/phys_diffraction/lbyl_2018/mc_cep/gen_sim/gen_sim_cep/gen_sim_cep/190716_095239/0000/LbyL_gen_sim_727.root\n'
p429
aS'/store/group/phys_diffraction/lbyl_2018/mc_cep/gen_sim/gen_sim_cep/gen_sim_cep/190716_095239/0000/LbyL_gen_sim_728.root\n'
p430
aS'/store/group/phys_diffraction/lbyl_2018/mc_cep/gen_sim/gen_sim_cep/gen_sim_cep/190716_095239/0000/LbyL_gen_sim_729.root\n'
p431
aS'/store/group/phys_diffraction/lbyl_2018/mc_cep/gen_sim/gen_sim_cep/gen_sim_cep/190716_095239/0000/LbyL_gen_sim_73.root\n'
p432
aS'/store/group/phys_diffraction/lbyl_2018/mc_cep/gen_sim/gen_sim_cep/gen_sim_cep/190716_095239/0000/LbyL_gen_sim_730.root\n'
p433
aS'/store/group/phys_diffraction/lbyl_2018/mc_cep/gen_sim/gen_sim_cep/gen_sim_cep/190716_095239/0000/LbyL_gen_sim_731.root\n'
p434
aS'/store/group/phys_diffraction/lbyl_2018/mc_cep/gen_sim/gen_sim_cep/gen_sim_cep/190716_095239/0000/LbyL_gen_sim_732.root\n'
p435
aS'/store/group/phys_diffraction/lbyl_2018/mc_cep/gen_sim/gen_sim_cep/gen_sim_cep/190716_095239/0000/LbyL_gen_sim_734.root\n'
p436
aS'/store/group/phys_diffraction/lbyl_2018/mc_cep/gen_sim/gen_sim_cep/gen_sim_cep/190716_095239/0000/LbyL_gen_sim_735.root\n'
p437
aS'/store/group/phys_diffraction/lbyl_2018/mc_cep/gen_sim/gen_sim_cep/gen_sim_cep/190716_095239/0000/LbyL_gen_sim_736.root\n'
p438
aS'/store/group/phys_diffraction/lbyl_2018/mc_cep/gen_sim/gen_sim_cep/gen_sim_cep/190716_095239/0000/LbyL_gen_sim_737.root\n'
p439
aS'/store/group/phys_diffraction/lbyl_2018/mc_cep/gen_sim/gen_sim_cep/gen_sim_cep/190716_095239/0000/LbyL_gen_sim_738.root\n'
p440
aS'/store/group/phys_diffraction/lbyl_2018/mc_cep/gen_sim/gen_sim_cep/gen_sim_cep/190716_095239/0000/LbyL_gen_sim_74.root\n'
p441
aS'/store/group/phys_diffraction/lbyl_2018/mc_cep/gen_sim/gen_sim_cep/gen_sim_cep/190716_095239/0000/LbyL_gen_sim_740.root\n'
p442
aS'/store/group/phys_diffraction/lbyl_2018/mc_cep/gen_sim/gen_sim_cep/gen_sim_cep/190716_095239/0000/LbyL_gen_sim_742.root\n'
p443
aS'/store/group/phys_diffraction/lbyl_2018/mc_cep/gen_sim/gen_sim_cep/gen_sim_cep/190716_095239/0000/LbyL_gen_sim_744.root\n'
p444
aS'/store/group/phys_diffraction/lbyl_2018/mc_cep/gen_sim/gen_sim_cep/gen_sim_cep/190716_095239/0000/LbyL_gen_sim_746.root\n'
p445
aS'/store/group/phys_diffraction/lbyl_2018/mc_cep/gen_sim/gen_sim_cep/gen_sim_cep/190716_095239/0000/LbyL_gen_sim_748.root\n'
p446
aS'/store/group/phys_diffraction/lbyl_2018/mc_cep/gen_sim/gen_sim_cep/gen_sim_cep/190716_095239/0000/LbyL_gen_sim_749.root\n'
p447
aS'/store/group/phys_diffraction/lbyl_2018/mc_cep/gen_sim/gen_sim_cep/gen_sim_cep/190716_095239/0000/LbyL_gen_sim_750.root\n'
p448
aS'/store/group/phys_diffraction/lbyl_2018/mc_cep/gen_sim/gen_sim_cep/gen_sim_cep/190716_095239/0000/LbyL_gen_sim_753.root\n'
p449
aS'/store/group/phys_diffraction/lbyl_2018/mc_cep/gen_sim/gen_sim_cep/gen_sim_cep/190716_095239/0000/LbyL_gen_sim_755.root\n'
p450
aS'/store/group/phys_diffraction/lbyl_2018/mc_cep/gen_sim/gen_sim_cep/gen_sim_cep/190716_095239/0000/LbyL_gen_sim_758.root\n'
p451
aS'/store/group/phys_diffraction/lbyl_2018/mc_cep/gen_sim/gen_sim_cep/gen_sim_cep/190716_095239/0000/LbyL_gen_sim_760.root\n'
p452
aS'/store/group/phys_diffraction/lbyl_2018/mc_cep/gen_sim/gen_sim_cep/gen_sim_cep/190716_095239/0000/LbyL_gen_sim_767.root\n'
p453
aS'/store/group/phys_diffraction/lbyl_2018/mc_cep/gen_sim/gen_sim_cep/gen_sim_cep/190716_095239/0000/LbyL_gen_sim_768.root\n'
p454
aS'/store/group/phys_diffraction/lbyl_2018/mc_cep/gen_sim/gen_sim_cep/gen_sim_cep/190716_095239/0000/LbyL_gen_sim_77.root\n'
p455
aS'/store/group/phys_diffraction/lbyl_2018/mc_cep/gen_sim/gen_sim_cep/gen_sim_cep/190716_095239/0000/LbyL_gen_sim_774.root\n'
p456
aS'/store/group/phys_diffraction/lbyl_2018/mc_cep/gen_sim/gen_sim_cep/gen_sim_cep/190716_095239/0000/LbyL_gen_sim_776.root\n'
p457
aS'/store/group/phys_diffraction/lbyl_2018/mc_cep/gen_sim/gen_sim_cep/gen_sim_cep/190716_095239/0000/LbyL_gen_sim_779.root\n'
p458
aS'/store/group/phys_diffraction/lbyl_2018/mc_cep/gen_sim/gen_sim_cep/gen_sim_cep/190716_095239/0000/LbyL_gen_sim_78.root\n'
p459
aS'/store/group/phys_diffraction/lbyl_2018/mc_cep/gen_sim/gen_sim_cep/gen_sim_cep/190716_095239/0000/LbyL_gen_sim_781.root\n'
p460
aS'/store/group/phys_diffraction/lbyl_2018/mc_cep/gen_sim/gen_sim_cep/gen_sim_cep/190716_095239/0000/LbyL_gen_sim_782.root\n'
p461
aS'/store/group/phys_diffraction/lbyl_2018/mc_cep/gen_sim/gen_sim_cep/gen_sim_cep/190716_095239/0000/LbyL_gen_sim_783.root\n'
p462
aS'/store/group/phys_diffraction/lbyl_2018/mc_cep/gen_sim/gen_sim_cep/gen_sim_cep/190716_095239/0000/LbyL_gen_sim_784.root\n'
p463
aS'/store/group/phys_diffraction/lbyl_2018/mc_cep/gen_sim/gen_sim_cep/gen_sim_cep/190716_095239/0000/LbyL_gen_sim_785.root\n'
p464
aS'/store/group/phys_diffraction/lbyl_2018/mc_cep/gen_sim/gen_sim_cep/gen_sim_cep/190716_095239/0000/LbyL_gen_sim_788.root\n'
p465
aS'/store/group/phys_diffraction/lbyl_2018/mc_cep/gen_sim/gen_sim_cep/gen_sim_cep/190716_095239/0000/LbyL_gen_sim_79.root\n'
p466
aS'/store/group/phys_diffraction/lbyl_2018/mc_cep/gen_sim/gen_sim_cep/gen_sim_cep/190716_095239/0000/LbyL_gen_sim_790.root\n'
p467
aS'/store/group/phys_diffraction/lbyl_2018/mc_cep/gen_sim/gen_sim_cep/gen_sim_cep/190716_095239/0000/LbyL_gen_sim_791.root\n'
p468
aS'/store/group/phys_diffraction/lbyl_2018/mc_cep/gen_sim/gen_sim_cep/gen_sim_cep/190716_095239/0000/LbyL_gen_sim_794.root\n'
p469
aS'/store/group/phys_diffraction/lbyl_2018/mc_cep/gen_sim/gen_sim_cep/gen_sim_cep/190716_095239/0000/LbyL_gen_sim_795.root\n'
p470
aS'/store/group/phys_diffraction/lbyl_2018/mc_cep/gen_sim/gen_sim_cep/gen_sim_cep/190716_095239/0000/LbyL_gen_sim_797.root\n'
p471
aS'/store/group/phys_diffraction/lbyl_2018/mc_cep/gen_sim/gen_sim_cep/gen_sim_cep/190716_095239/0000/LbyL_gen_sim_798.root\n'
p472
aS'/store/group/phys_diffraction/lbyl_2018/mc_cep/gen_sim/gen_sim_cep/gen_sim_cep/190716_095239/0000/LbyL_gen_sim_799.root\n'
p473
aS'/store/group/phys_diffraction/lbyl_2018/mc_cep/gen_sim/gen_sim_cep/gen_sim_cep/190716_095239/0000/LbyL_gen_sim_80.root\n'
p474
aS'/store/group/phys_diffraction/lbyl_2018/mc_cep/gen_sim/gen_sim_cep/gen_sim_cep/190716_095239/0000/LbyL_gen_sim_802.root\n'
p475
aS'/store/group/phys_diffraction/lbyl_2018/mc_cep/gen_sim/gen_sim_cep/gen_sim_cep/190716_095239/0000/LbyL_gen_sim_805.root\n'
p476
aS'/store/group/phys_diffraction/lbyl_2018/mc_cep/gen_sim/gen_sim_cep/gen_sim_cep/190716_095239/0000/LbyL_gen_sim_806.root\n'
p477
aS'/store/group/phys_diffraction/lbyl_2018/mc_cep/gen_sim/gen_sim_cep/gen_sim_cep/190716_095239/0000/LbyL_gen_sim_809.root\n'
p478
aS'/store/group/phys_diffraction/lbyl_2018/mc_cep/gen_sim/gen_sim_cep/gen_sim_cep/190716_095239/0000/LbyL_gen_sim_81.root\n'
p479
aS'/store/group/phys_diffraction/lbyl_2018/mc_cep/gen_sim/gen_sim_cep/gen_sim_cep/190716_095239/0000/LbyL_gen_sim_810.root\n'
p480
aS'/store/group/phys_diffraction/lbyl_2018/mc_cep/gen_sim/gen_sim_cep/gen_sim_cep/190716_095239/0000/LbyL_gen_sim_813.root\n'
p481
aS'/store/group/phys_diffraction/lbyl_2018/mc_cep/gen_sim/gen_sim_cep/gen_sim_cep/190716_095239/0000/LbyL_gen_sim_814.root\n'
p482
aS'/store/group/phys_diffraction/lbyl_2018/mc_cep/gen_sim/gen_sim_cep/gen_sim_cep/190716_095239/0000/LbyL_gen_sim_82.root\n'
p483
aS'/store/group/phys_diffraction/lbyl_2018/mc_cep/gen_sim/gen_sim_cep/gen_sim_cep/190716_095239/0000/LbyL_gen_sim_84.root\n'
p484
aS'/store/group/phys_diffraction/lbyl_2018/mc_cep/gen_sim/gen_sim_cep/gen_sim_cep/190716_095239/0000/LbyL_gen_sim_86.root\n'
p485
aS'/store/group/phys_diffraction/lbyl_2018/mc_cep/gen_sim/gen_sim_cep/gen_sim_cep/190716_095239/0000/LbyL_gen_sim_87.root\n'
p486
aS'/store/group/phys_diffraction/lbyl_2018/mc_cep/gen_sim/gen_sim_cep/gen_sim_cep/190716_095239/0000/LbyL_gen_sim_88.root\n'
p487
aS'/store/group/phys_diffraction/lbyl_2018/mc_cep/gen_sim/gen_sim_cep/gen_sim_cep/190716_095239/0000/LbyL_gen_sim_9.root\n'
p488
aS'/store/group/phys_diffraction/lbyl_2018/mc_cep/gen_sim/gen_sim_cep/gen_sim_cep/190716_095239/0000/LbyL_gen_sim_90.root\n'
p489
aS'/store/group/phys_diffraction/lbyl_2018/mc_cep/gen_sim/gen_sim_cep/gen_sim_cep/190716_095239/0000/LbyL_gen_sim_92.root\n'
p490
aS'/store/group/phys_diffraction/lbyl_2018/mc_cep/gen_sim/gen_sim_cep/gen_sim_cep/190716_095239/0000/LbyL_gen_sim_93.root\n'
p491
aS'/store/group/phys_diffraction/lbyl_2018/mc_cep/gen_sim/gen_sim_cep/gen_sim_cep/190716_095239/0000/LbyL_gen_sim_95.root\n'
p492
aS'/store/group/phys_diffraction/lbyl_2018/mc_cep/gen_sim/gen_sim_cep/gen_sim_cep/190716_095239/0000/LbyL_gen_sim_96.root\n'
p493
aS'/store/group/phys_diffraction/lbyl_2018/mc_cep/gen_sim/gen_sim_cep/gen_sim_cep/190716_095239/0000/LbyL_gen_sim_98.root\n'
p494
aS'/store/group/phys_diffraction/lbyl_2018/mc_cep/gen_sim/gen_sim_cep/gen_sim_cep/190716_095239/0000/LbyL_gen_sim_99.root\n'
p495
asg64
I01
sbsg29
g3
(g9
g5
NtRp496
(dp497
g12
I00
sg13
S''
sg14
g15
((lp498
S'psetName'
p499
aS'pluginName'
p500
aS'maxMemoryMB'
p501
atRp502
sg19
g29
sg20
(dp503
sg500
S'Analysis'
p504
sg22
g15
((ltRp505
sg499
S'step2_DIGI_L1_DIGI2RAW_HLT.py'
p506
sg25
Nsg501
I4000
sbsbsS'voGroup'
p507
S''
sS'Server'
p508
S'cmsweb.cern.ch'
p509
sS'instance'
p510
S'prod'
p511
sS'RequestName'
p512
V190717_184105:jniedzie_crab_digi_raw_cep
p513
sS'voRole'
p514
S'NULL'
p515
sS'Port'
p516
S''
s.